Component: ARM Compiler 5.06 update 4 (build 422) Tool: armlink [4d35d2]

==============================================================================

Section Cross References

    startup_stm32f10x_md.o(STACK) refers (Special) to stm32f10x_it.o(i.PendSV_Handler) for PendSV_Handler
    startup_stm32f10x_md.o(HEAP) refers (Special) to stm32f10x_it.o(i.PendSV_Handler) for PendSV_Handler
    startup_stm32f10x_md.o(RESET) refers (Special) to stm32f10x_it.o(i.PendSV_Handler) for PendSV_Handler
    startup_stm32f10x_md.o(RESET) refers to startup_stm32f10x_md.o(STACK) for __initial_sp
    startup_stm32f10x_md.o(RESET) refers to startup_stm32f10x_md.o(.text) for Reset_Handler
    startup_stm32f10x_md.o(RESET) refers to stm32f10x_it.o(i.NMI_Handler) for NMI_Handler
    startup_stm32f10x_md.o(RESET) refers to stm32f10x_it.o(i.HardFault_Handler) for HardFault_Handler
    startup_stm32f10x_md.o(RESET) refers to stm32f10x_it.o(i.MemManage_Handler) for MemManage_Handler
    startup_stm32f10x_md.o(RESET) refers to stm32f10x_it.o(i.BusFault_Handler) for BusFault_Handler
    startup_stm32f10x_md.o(RESET) refers to stm32f10x_it.o(i.UsageFault_Handler) for UsageFault_Handler
    startup_stm32f10x_md.o(RESET) refers to port.o(.emb_text) for vPortSVCHandler
    startup_stm32f10x_md.o(RESET) refers to stm32f10x_it.o(i.DebugMon_Handler) for DebugMon_Handler
    startup_stm32f10x_md.o(RESET) refers to port.o(i.xPortSysTickHandler) for xPortSysTickHandler
    startup_stm32f10x_md.o(RESET) refers to usb_it.o(i.USB_LP_CAN1_RX0_IRQHandler) for USB_LP_CAN1_RX0_IRQHandler
    startup_stm32f10x_md.o(RESET) refers to stm32f10x_it.o(i.TIM3_IRQHandler) for TIM3_IRQHandler
    startup_stm32f10x_md.o(RESET) refers to usb_it.o(i.USBWakeUp_IRQHandler) for USBWakeUp_IRQHandler
    startup_stm32f10x_md.o(.text) refers (Special) to stm32f10x_it.o(i.PendSV_Handler) for PendSV_Handler
    startup_stm32f10x_md.o(.text) refers to system_stm32f10x.o(i.SystemInit) for SystemInit
    startup_stm32f10x_md.o(.text) refers to entry.o(.ARM.Collect$$$$00000000) for __main
    system_stm32f10x.o(i.SystemCoreClockUpdate) refers to system_stm32f10x.o(.data) for .data
    system_stm32f10x.o(i.SystemInit) refers to system_stm32f10x.o(i.SetSysClockTo72) for SetSysClockTo72
    stm32f10x_usart.o(i.USART_DeInit) refers to stm32f10x_rcc.o(i.RCC_APB2PeriphResetCmd) for RCC_APB2PeriphResetCmd
    stm32f10x_usart.o(i.USART_DeInit) refers to stm32f10x_rcc.o(i.RCC_APB1PeriphResetCmd) for RCC_APB1PeriphResetCmd
    stm32f10x_usart.o(i.USART_Init) refers to stm32f10x_rcc.o(i.RCC_GetClocksFreq) for RCC_GetClocksFreq
    stm32f10x_gpio.o(i.GPIO_AFIODeInit) refers to stm32f10x_rcc.o(i.RCC_APB2PeriphResetCmd) for RCC_APB2PeriphResetCmd
    stm32f10x_gpio.o(i.GPIO_DeInit) refers to stm32f10x_rcc.o(i.RCC_APB2PeriphResetCmd) for RCC_APB2PeriphResetCmd
    stm32f10x_gpio.o(i.GPIO_QuickInit) refers to stm32f10x_rcc.o(i.RCC_APB2PeriphClockCmd) for RCC_APB2PeriphClockCmd
    stm32f10x_gpio.o(i.GPIO_QuickInit) refers to stm32f10x_gpio.o(i.GPIO_Init) for GPIO_Init
    stm32f10x_adc.o(i.ADC_DeInit) refers to stm32f10x_rcc.o(i.RCC_APB2PeriphResetCmd) for RCC_APB2PeriphResetCmd
    stm32f10x_tim.o(i.TIM_DeInit) refers to stm32f10x_rcc.o(i.RCC_APB1PeriphResetCmd) for RCC_APB1PeriphResetCmd
    stm32f10x_tim.o(i.TIM_DeInit) refers to stm32f10x_rcc.o(i.RCC_APB2PeriphResetCmd) for RCC_APB2PeriphResetCmd
    stm32f10x_tim.o(i.TIM_ETRClockMode1Config) refers to stm32f10x_tim.o(i.TIM_ETRConfig) for TIM_ETRConfig
    stm32f10x_tim.o(i.TIM_ETRClockMode2Config) refers to stm32f10x_tim.o(i.TIM_ETRConfig) for TIM_ETRConfig
    stm32f10x_tim.o(i.TIM_ICInit) refers to stm32f10x_tim.o(i.TI1_Config) for TI1_Config
    stm32f10x_tim.o(i.TIM_ICInit) refers to stm32f10x_tim.o(i.TIM_SetIC1Prescaler) for TIM_SetIC1Prescaler
    stm32f10x_tim.o(i.TIM_ICInit) refers to stm32f10x_tim.o(i.TI2_Config) for TI2_Config
    stm32f10x_tim.o(i.TIM_ICInit) refers to stm32f10x_tim.o(i.TIM_SetIC2Prescaler) for TIM_SetIC2Prescaler
    stm32f10x_tim.o(i.TIM_ICInit) refers to stm32f10x_tim.o(i.TIM_SetIC3Prescaler) for TIM_SetIC3Prescaler
    stm32f10x_tim.o(i.TIM_ICInit) refers to stm32f10x_tim.o(i.TIM_SetIC4Prescaler) for TIM_SetIC4Prescaler
    stm32f10x_tim.o(i.TIM_ITRxExternalClockConfig) refers to stm32f10x_tim.o(i.TIM_SelectInputTrigger) for TIM_SelectInputTrigger
    stm32f10x_tim.o(i.TIM_PWMIConfig) refers to stm32f10x_tim.o(i.TI2_Config) for TI2_Config
    stm32f10x_tim.o(i.TIM_PWMIConfig) refers to stm32f10x_tim.o(i.TIM_SetIC2Prescaler) for TIM_SetIC2Prescaler
    stm32f10x_tim.o(i.TIM_PWMIConfig) refers to stm32f10x_tim.o(i.TI1_Config) for TI1_Config
    stm32f10x_tim.o(i.TIM_PWMIConfig) refers to stm32f10x_tim.o(i.TIM_SetIC1Prescaler) for TIM_SetIC1Prescaler
    stm32f10x_tim.o(i.TIM_TIxExternalClockConfig) refers to stm32f10x_tim.o(i.TI1_Config) for TI1_Config
    stm32f10x_tim.o(i.TIM_TIxExternalClockConfig) refers to stm32f10x_tim.o(i.TIM_SelectInputTrigger) for TIM_SelectInputTrigger
    stm32f10x_tim.o(i.TIM_TIxExternalClockConfig) refers to stm32f10x_tim.o(i.TI2_Config) for TI2_Config
    stm32f10x_i2c.o(i.I2C_Ack) refers to stm32f10x_i2c.o(i.I2C_delay) for I2C_delay
    stm32f10x_i2c.o(i.I2C_INIT) refers to stm32f10x_rcc.o(i.RCC_APB2PeriphClockCmd) for RCC_APB2PeriphClockCmd
    stm32f10x_i2c.o(i.I2C_INIT) refers to stm32f10x_gpio.o(i.GPIO_Init) for GPIO_Init
    stm32f10x_i2c.o(i.I2C_INIT) refers to stm32fx_delay.o(i.DelayMs) for DelayMs
    stm32f10x_i2c.o(i.I2C_INIT) refers to stm32f10x_i2c.o(i.I2C_Stop) for I2C_Stop
    stm32f10x_i2c.o(i.I2C_NoAck) refers to stm32f10x_i2c.o(i.I2C_delay) for I2C_delay
    stm32f10x_i2c.o(i.I2C_RadeByte) refers to stm32f10x_i2c.o(i.I2C_delay) for I2C_delay
    stm32f10x_i2c.o(i.I2C_Read) refers to stm32f10x_i2c.o(i.I2C_Start) for I2C_Start
    stm32f10x_i2c.o(i.I2C_Read) refers to stm32f10x_i2c.o(i.I2C_SendByte) for I2C_SendByte
    stm32f10x_i2c.o(i.I2C_Read) refers to stm32f10x_i2c.o(i.I2C_WaitAck) for I2C_WaitAck
    stm32f10x_i2c.o(i.I2C_Read) refers to stm32f10x_i2c.o(i.I2C_RadeByte) for I2C_RadeByte
    stm32f10x_i2c.o(i.I2C_Read) refers to stm32f10x_i2c.o(i.I2C_NoAck) for I2C_NoAck
    stm32f10x_i2c.o(i.I2C_Read) refers to stm32f10x_i2c.o(i.I2C_Ack) for I2C_Ack
    stm32f10x_i2c.o(i.I2C_Read) refers to stm32f10x_i2c.o(i.I2C_Stop) for I2C_Stop
    stm32f10x_i2c.o(i.I2C_SendByte) refers to stm32f10x_i2c.o(i.I2C_delay) for I2C_delay
    stm32f10x_i2c.o(i.I2C_Start) refers to stm32f10x_i2c.o(i.I2C_delay) for I2C_delay
    stm32f10x_i2c.o(i.I2C_Stop) refers to stm32f10x_i2c.o(i.I2C_delay) for I2C_delay
    stm32f10x_i2c.o(i.I2C_WaitAck) refers to stm32f10x_i2c.o(i.I2C_delay) for I2C_delay
    stm32f10x_i2c.o(i.I2C_Write) refers to stm32f10x_i2c.o(i.I2C_Start) for I2C_Start
    stm32f10x_i2c.o(i.I2C_Write) refers to stm32f10x_i2c.o(i.I2C_SendByte) for I2C_SendByte
    stm32f10x_i2c.o(i.I2C_Write) refers to stm32f10x_i2c.o(i.I2C_WaitAck) for I2C_WaitAck
    stm32f10x_i2c.o(i.I2C_Write) refers to stm32f10x_i2c.o(i.I2C_Stop) for I2C_Stop
    stm32f10x_i2c.o(i.I2C_Write) refers to stm32fx_delay.o(i.DelayMs) for DelayMs
    stm32f10x_i2c.o(i.Single_Read) refers to stm32f10x_i2c.o(i.I2C_Start) for I2C_Start
    stm32f10x_i2c.o(i.Single_Read) refers to stm32f10x_i2c.o(i.I2C_SendByte) for I2C_SendByte
    stm32f10x_i2c.o(i.Single_Read) refers to stm32f10x_i2c.o(i.I2C_WaitAck) for I2C_WaitAck
    stm32f10x_i2c.o(i.Single_Read) refers to stm32f10x_i2c.o(i.I2C_RadeByte) for I2C_RadeByte
    stm32f10x_i2c.o(i.Single_Read) refers to stm32f10x_i2c.o(i.I2C_NoAck) for I2C_NoAck
    stm32f10x_i2c.o(i.Single_Read) refers to stm32f10x_i2c.o(i.I2C_Stop) for I2C_Stop
    stm32f10x_i2c.o(i.Single_Write) refers to stm32f10x_i2c.o(i.I2C_Start) for I2C_Start
    stm32f10x_i2c.o(i.Single_Write) refers to stm32f10x_i2c.o(i.I2C_SendByte) for I2C_SendByte
    stm32f10x_i2c.o(i.Single_Write) refers to stm32f10x_i2c.o(i.I2C_WaitAck) for I2C_WaitAck
    stm32f10x_i2c.o(i.Single_Write) refers to stm32f10x_i2c.o(i.I2C_Stop) for I2C_Stop
    stm32f10x_i2c.o(i.Single_Write) refers to stm32fx_delay.o(i.DelayMs) for DelayMs
    stm32f10x_rcc.o(i.RCC_GetClocksFreq) refers to stm32f10x_rcc.o(.data) for .data
    stm32f10x_rcc.o(i.RCC_WaitForHSEStartUp) refers to stm32f10x_rcc.o(i.RCC_GetFlagStatus) for RCC_GetFlagStatus
    stm32f10x_spi.o(i.I2S_Init) refers to stm32f10x_rcc.o(i.RCC_GetClocksFreq) for RCC_GetClocksFreq
    stm32f10x_spi.o(i.SPI_I2S_DeInit) refers to stm32f10x_rcc.o(i.RCC_APB2PeriphResetCmd) for RCC_APB2PeriphResetCmd
    stm32f10x_spi.o(i.SPI_I2S_DeInit) refers to stm32f10x_rcc.o(i.RCC_APB1PeriphResetCmd) for RCC_APB1PeriphResetCmd
    stm32fx_delay.o(i.DelayMs) refers to stm32fx_delay.o(i.DelayUs) for DelayUs
    stm32fx_delay.o(i.DelayMs_Tick) refers to stm32fx_delay.o(i.DelayUs_Tick) for DelayUs_Tick
    stm32fx_delay.o(i.DelayUs_Tick) refers to stm32fx_delay.o(.data) for .data
    stm32fx_delay.o(i.Init_SysTick) refers to stm32fx_delay.o(.data) for .data
    stm32f10x_pwr.o(i.PWR_DeInit) refers to stm32f10x_rcc.o(i.RCC_APB1PeriphResetCmd) for RCC_APB1PeriphResetCmd
    stm32f10x_flash.o(i.FLASH_EnableWriteProtection) refers to stm32f10x_flash.o(i.FLASH_WaitForLastOperation) for FLASH_WaitForLastOperation
    stm32f10x_flash.o(i.FLASH_EraseAllBank1Pages) refers to stm32f10x_flash.o(i.FLASH_WaitForLastBank1Operation) for FLASH_WaitForLastBank1Operation
    stm32f10x_flash.o(i.FLASH_EraseAllPages) refers to stm32f10x_flash.o(i.FLASH_WaitForLastOperation) for FLASH_WaitForLastOperation
    stm32f10x_flash.o(i.FLASH_EraseOptionBytes) refers to stm32f10x_flash.o(i.FLASH_GetReadOutProtectionStatus) for FLASH_GetReadOutProtectionStatus
    stm32f10x_flash.o(i.FLASH_EraseOptionBytes) refers to stm32f10x_flash.o(i.FLASH_WaitForLastOperation) for FLASH_WaitForLastOperation
    stm32f10x_flash.o(i.FLASH_ErasePage) refers to stm32f10x_flash.o(i.FLASH_WaitForLastOperation) for FLASH_WaitForLastOperation
    stm32f10x_flash.o(i.FLASH_ProgramHalfWord) refers to stm32f10x_flash.o(i.FLASH_WaitForLastOperation) for FLASH_WaitForLastOperation
    stm32f10x_flash.o(i.FLASH_ProgramOptionByteData) refers to stm32f10x_flash.o(i.FLASH_WaitForLastOperation) for FLASH_WaitForLastOperation
    stm32f10x_flash.o(i.FLASH_ProgramWord) refers to stm32f10x_flash.o(i.FLASH_WaitForLastOperation) for FLASH_WaitForLastOperation
    stm32f10x_flash.o(i.FLASH_ReadOutProtection) refers to stm32f10x_flash.o(i.FLASH_WaitForLastOperation) for FLASH_WaitForLastOperation
    stm32f10x_flash.o(i.FLASH_UserOptionByteConfig) refers to stm32f10x_flash.o(i.FLASH_WaitForLastOperation) for FLASH_WaitForLastOperation
    stm32f10x_flash.o(i.FLASH_WaitForLastBank1Operation) refers to stm32f10x_flash.o(i.FLASH_GetBank1Status) for FLASH_GetBank1Status
    stm32f10x_flash.o(i.FLASH_WaitForLastOperation) refers to stm32f10x_flash.o(i.FLASH_GetBank1Status) for FLASH_GetBank1Status
    datascope_dp.o(i.DataScope_Data_Generate) refers to datascope_dp.o(.bss) for .bss
    datascope_dp.o(i.DataScope_Get_Channel_Data) refers to datascope_dp.o(i.Float2Byte) for Float2Byte
    datascope_dp.o(i.DataScope_Get_Channel_Data) refers to datascope_dp.o(.bss) for .bss
    datascope_dp.o(i.Send_Once) refers to datascope_dp.o(i.DataScope_Get_Channel_Data) for DataScope_Get_Channel_Data
    datascope_dp.o(i.Send_Once) refers to datascope_dp.o(i.DataScope_Data_Generate) for DataScope_Data_Generate
    datascope_dp.o(i.Send_Once) refers to hw_config.o(i.USB_TxWrite) for USB_TxWrite
    datascope_dp.o(i.Send_Once) refers to imu.o(.data) for gIMU
    datascope_dp.o(i.Send_Once) refers to bmp280.o(.data) for gSensorBmp
    datascope_dp.o(i.Send_Once) refers to bf_status_mini_global.o(.bss) for gSelfState
    datascope_dp.o(i.Send_Once) refers to bf_status_mini_ctrl.o(.bss) for gCtrl
    datascope_dp.o(i.Send_Once) refers to datascope_dp.o(.bss) for .bss
    debug_usart.o(i.usart_init) refers to stm32f10x_rcc.o(i.RCC_APB2PeriphClockCmd) for RCC_APB2PeriphClockCmd
    debug_usart.o(i.usart_init) refers to stm32f10x_gpio.o(i.GPIO_Init) for GPIO_Init
    debug_usart.o(i.usart_init) refers to stm32f10x_usart.o(i.USART_Init) for USART_Init
    debug_usart.o(i.usart_init) refers to stm32f10x_usart.o(i.USART_Cmd) for USART_Cmd
    debug_usart.o(i.usart_init) refers to stm32f10x_usart.o(i.USART_ClearFlag) for USART_ClearFlag
    mpu6050.o(i.MPU6050_Read) refers to stm32f10x_i2c.o(i.I2C_Read) for I2C_Read
    mpu6050.o(i.MPU6050_Read) refers to fflti.o(.text) for __aeabi_i2f
    mpu6050.o(i.MPU6050_Read) refers to mpu6050.o(.data) for .data
    mpu6050.o(i.MPU6050_Read) refers to bf_status_mini_global.o(.bss) for flag
    mpu6050.o(i.MPU6050_Read) refers to bf_status_mini_param.o(.data) for gParam
    mpu6050.o(i.mpu_init) refers to stm32f10x_i2c.o(i.Single_Read) for Single_Read
    mpu6050.o(i.mpu_init) refers to stm32f10x_i2c.o(i.Single_Write) for Single_Write
    mpu6050.o(.data) refers to mpu6050.o(i.mpu_init) for mpu_init
    mpu6050.o(.data) refers to mpu6050.o(i.MPU6050_Read) for MPU6050_Read
    bmp280.o(i.bmp280CompensateP) refers to ldiv.o(.text) for __aeabi_ldivmod
    bmp280.o(i.bmp280CompensateP) refers to bmp280.o(.bss) for .bss
    bmp280.o(i.bmp280GetData) refers to stm32f10x_i2c.o(i.I2C_Read) for I2C_Read
    bmp280.o(i.bmp280GetData) refers to fflti.o(.text) for __aeabi_i2f
    bmp280.o(i.bmp280GetData) refers to fdiv.o(.text) for __aeabi_fdiv
    bmp280.o(i.bmp280GetData) refers to bmp280.o(i.bmp280CompensateP) for bmp280CompensateP
    bmp280.o(i.bmp280GetData) refers to ffltui.o(.text) for __aeabi_ui2f
    bmp280.o(i.bmp280GetData) refers to bmp280.o(i.bmp280PressureToAltitude) for bmp280PressureToAltitude
    bmp280.o(i.bmp280GetData) refers to bf_status_mini_filter.o(i.presssureFilter) for presssureFilter
    bmp280.o(i.bmp280GetData) refers to bmp280.o(.data) for .data
    bmp280.o(i.bmp280GetData) refers to bmp280.o(.bss) for .bss
    bmp280.o(i.bmp280PressureToAltitude) refers to fadd.o(.text) for __aeabi_fadd
    bmp280.o(i.bmp280PressureToAltitude) refers to f2d.o(.text) for __aeabi_f2d
    bmp280.o(i.bmp280PressureToAltitude) refers to fdiv.o(.text) for __aeabi_fdiv
    bmp280.o(i.bmp280PressureToAltitude) refers to pow.o(i.pow) for pow
    bmp280.o(i.bmp280PressureToAltitude) refers to dadd.o(.text) for __aeabi_dsub
    bmp280.o(i.bmp280PressureToAltitude) refers to dmul.o(.text) for __aeabi_dmul
    bmp280.o(i.bmp280PressureToAltitude) refers to ddiv.o(.text) for __aeabi_ddiv
    bmp280.o(i.bmp280PressureToAltitude) refers to d2f.o(.text) for __aeabi_d2f
    bmp280.o(i.bmp280PressureToAltitude) refers to bmp280.o(.data) for .data
    bmp280.o(i.bmp280_init) refers to stm32f10x_i2c.o(i.Single_Read) for Single_Read
    bmp280.o(i.bmp280_init) refers to stm32f10x_i2c.o(i.I2C_Read) for I2C_Read
    bmp280.o(i.bmp280_init) refers to stm32f10x_i2c.o(i.Single_Write) for Single_Write
    bmp280.o(i.bmp280_init) refers to printf1.o(i.__0printf$1) for __2printf
    bmp280.o(i.bmp280_init) refers to bmp280.o(.bss) for .bss
    bmp280.o(i.bmp280_init) refers to bmp280.o(.data) for .data
    bmp280.o(.data) refers to bmp280.o(i.bmp280_init) for bmp280_init
    bmp280.o(.data) refers to bmp280.o(i.bmp280GetData) for bmp280GetData
    nrf24l01.o(i.NRF_Init) refers to stm32f10x_rcc.o(i.RCC_APB2PeriphClockCmd) for RCC_APB2PeriphClockCmd
    nrf24l01.o(i.NRF_Init) refers to stm32f10x_gpio.o(i.GPIO_QuickInit) for GPIO_QuickInit
    nrf24l01.o(i.NRF_Init) refers to stm32f10x_spi.o(i.SPI_Init) for SPI_Init
    nrf24l01.o(i.NRF_Init) refers to stm32f10x_spi.o(i.SPI_Cmd) for SPI_Cmd
    nrf24l01.o(i.NRF_Init) refers to nrf24l01.o(i.SPI_NRF_WriteBuf) for SPI_NRF_WriteBuf
    nrf24l01.o(i.NRF_Init) refers to nrf24l01.o(i.SPI_NRF_ReadBuf) for SPI_NRF_ReadBuf
    nrf24l01.o(i.NRF_Init) refers to stm32fx_delay.o(i.DelayMs) for DelayMs
    nrf24l01.o(i.NRF_Init) refers to nrf24l01.o(i.NRF_SETUP) for NRF_SETUP
    nrf24l01.o(i.NRF_Init) refers to nrf24l01.o(i.NRF_RX_Mode) for NRF_RX_Mode
    nrf24l01.o(i.NRF_Init) refers to nrf24l01.o(.data) for .data
    nrf24l01.o(i.NRF_RX_Mode) refers to nrf24l01.o(i.SPI_NRF_WriteReg) for SPI_NRF_WriteReg
    nrf24l01.o(i.NRF_Rx_Dat) refers to queue.o(i.xQueueGenericReceive) for xQueueGenericReceive
    nrf24l01.o(i.NRF_Rx_Dat) refers to nrf24l01.o(i.SPI_NRF_ReadReg) for SPI_NRF_ReadReg
    nrf24l01.o(i.NRF_Rx_Dat) refers to nrf24l01.o(i.SPI_NRF_ReadBuf) for SPI_NRF_ReadBuf
    nrf24l01.o(i.NRF_Rx_Dat) refers to nrf24l01.o(i.SPI_NRF_WriteReg) for SPI_NRF_WriteReg
    nrf24l01.o(i.NRF_Rx_Dat) refers to queue.o(i.xQueueGenericSend) for xQueueGenericSend
    nrf24l01.o(i.NRF_Rx_Dat) refers to bf_status_mini_global.o(.bss) for flag
    nrf24l01.o(i.NRF_SETUP) refers to nrf24l01.o(i.SPI_NRF_WriteBuf) for SPI_NRF_WriteBuf
    nrf24l01.o(i.NRF_SETUP) refers to nrf24l01.o(i.SPI_NRF_WriteReg) for SPI_NRF_WriteReg
    nrf24l01.o(i.NRF_SETUP) refers to nrf24l01.o(.data) for .data
    nrf24l01.o(i.NRF_TX_Mode) refers to nrf24l01.o(i.SPI_NRF_WriteReg) for SPI_NRF_WriteReg
    nrf24l01.o(i.NRF_TX_Mode) refers to tasks.o(i.vTaskDelay) for vTaskDelay
    nrf24l01.o(i.NRF_Tx_Dat) refers to queue.o(i.xQueueGenericReceive) for xQueueGenericReceive
    nrf24l01.o(i.NRF_Tx_Dat) refers to nrf24l01.o(i.NRF_TX_Mode) for NRF_TX_Mode
    nrf24l01.o(i.NRF_Tx_Dat) refers to nrf24l01.o(i.SPI_NRF_WriteBuf) for SPI_NRF_WriteBuf
    nrf24l01.o(i.NRF_Tx_Dat) refers to nrf24l01.o(i.SPI_NRF_ReadReg) for SPI_NRF_ReadReg
    nrf24l01.o(i.NRF_Tx_Dat) refers to nrf24l01.o(i.SPI_NRF_WriteReg) for SPI_NRF_WriteReg
    nrf24l01.o(i.NRF_Tx_Dat) refers to nrf24l01.o(i.NRF_RX_Mode) for NRF_RX_Mode
    nrf24l01.o(i.NRF_Tx_Dat) refers to queue.o(i.xQueueGenericSend) for xQueueGenericSend
    nrf24l01.o(i.NRF_Tx_Dat) refers to bf_status_mini_global.o(.bss) for flag
    nrf24l01.o(i.SPI_NRF_RW) refers to stm32f10x_spi.o(i.SPI_I2S_GetFlagStatus) for SPI_I2S_GetFlagStatus
    nrf24l01.o(i.SPI_NRF_RW) refers to stm32f10x_spi.o(i.SPI_I2S_SendData) for SPI_I2S_SendData
    nrf24l01.o(i.SPI_NRF_RW) refers to stm32f10x_spi.o(i.SPI_I2S_ReceiveData) for SPI_I2S_ReceiveData
    nrf24l01.o(i.SPI_NRF_ReadBuf) refers to nrf24l01.o(i.SPI_NRF_RW) for SPI_NRF_RW
    nrf24l01.o(i.SPI_NRF_ReadReg) refers to nrf24l01.o(i.SPI_NRF_RW) for SPI_NRF_RW
    nrf24l01.o(i.SPI_NRF_WriteBuf) refers to nrf24l01.o(i.SPI_NRF_RW) for SPI_NRF_RW
    nrf24l01.o(i.SPI_NRF_WriteReg) refers to nrf24l01.o(i.SPI_NRF_RW) for SPI_NRF_RW
    nrf24l01.o(.data) refers to nrf24l01.o(i.NRF_Init) for NRF_Init
    nrf24l01.o(.data) refers to nrf24l01.o(i.NRF_TX_Mode) for NRF_TX_Mode
    nrf24l01.o(.data) refers to nrf24l01.o(i.NRF_RX_Mode) for NRF_RX_Mode
    nrf24l01.o(.data) refers to nrf24l01.o(i.NRF_Rx_Dat) for NRF_Rx_Dat
    nrf24l01.o(.data) refers to nrf24l01.o(i.NRF_Tx_Dat) for NRF_Tx_Dat
    battery.o(i.Set_SYS_Mode) refers to battery.o(.emb_text) for SystemReset
    battery.o(i.battery_init) refers to stm32f10x_rcc.o(i.RCC_APB2PeriphClockCmd) for RCC_APB2PeriphClockCmd
    battery.o(i.battery_init) refers to stm32f10x_gpio.o(i.GPIO_Init) for GPIO_Init
    battery.o(i.battery_init) refers to stm32f10x_adc.o(i.ADC_Init) for ADC_Init
    battery.o(i.battery_init) refers to stm32f10x_adc.o(i.ADC_Cmd) for ADC_Cmd
    battery.o(i.battery_init) refers to stm32f10x_adc.o(i.ADC_ResetCalibration) for ADC_ResetCalibration
    battery.o(i.battery_init) refers to stm32f10x_adc.o(i.ADC_GetResetCalibrationStatus) for ADC_GetResetCalibrationStatus
    battery.o(i.battery_init) refers to stm32f10x_adc.o(i.ADC_StartCalibration) for ADC_StartCalibration
    battery.o(i.battery_init) refers to stm32f10x_adc.o(i.ADC_GetCalibrationStatus) for ADC_GetCalibrationStatus
    battery.o(i.battery_init) refers to stm32f10x_gpio.o(i.GPIO_QuickInit) for GPIO_QuickInit
    battery.o(i.battery_init) refers to stm32f10x_gpio.o(i.GPIO_ReadInputDataBit) for GPIO_ReadInputDataBit
    battery.o(i.battery_init) refers to stm32f10x_gpio.o(i.GPIO_SetBits) for GPIO_SetBits
    battery.o(i.battery_init) refers to stm32fx_delay.o(i.DelayMs) for DelayMs
    battery.o(i.battery_read) refers to stm32f10x_adc.o(i.ADC_SoftwareStartConvCmd) for ADC_SoftwareStartConvCmd
    battery.o(i.battery_read) refers to stm32f10x_adc.o(i.ADC_RegularChannelConfig) for ADC_RegularChannelConfig
    battery.o(i.battery_read) refers to stm32f10x_adc.o(i.ADC_GetFlagStatus) for ADC_GetFlagStatus
    battery.o(i.battery_read) refers to stm32f10x_adc.o(i.ADC_GetConversionValue) for ADC_GetConversionValue
    battery.o(i.battery_read) refers to ffltui.o(.text) for __aeabi_ui2f
    battery.o(i.battery_read) refers to fscalb.o(.text) for __ARM_scalbnf
    battery.o(i.battery_read) refers to fmul.o(.text) for __aeabi_fmul
    battery.o(i.battery_read) refers to battery.o(.data) for .data
    battery.o(i.battery_read) refers to bf_status_mini_global.o(.bss) for flag
    battery.o(.data) refers to battery.o(i.battery_init) for battery_init
    battery.o(.data) refers to battery.o(i.battery_read) for battery_read
    battery.o(.data) refers to battery.o(i.Set_SYS_Mode) for Set_SYS_Mode
    motor.o(i.motor_init) refers to stm32f10x_rcc.o(i.RCC_APB1PeriphClockCmd) for RCC_APB1PeriphClockCmd
    motor.o(i.motor_init) refers to stm32f10x_gpio.o(i.GPIO_QuickInit) for GPIO_QuickInit
    motor.o(i.motor_init) refers to stm32f10x_tim.o(i.TIM_DeInit) for TIM_DeInit
    motor.o(i.motor_init) refers to stm32f10x_tim.o(i.TIM_TimeBaseInit) for TIM_TimeBaseInit
    motor.o(i.motor_init) refers to stm32f10x_tim.o(i.TIM_OCStructInit) for TIM_OCStructInit
    motor.o(i.motor_init) refers to stm32f10x_tim.o(i.TIM_OC1Init) for TIM_OC1Init
    motor.o(i.motor_init) refers to stm32f10x_tim.o(i.TIM_OC2Init) for TIM_OC2Init
    motor.o(i.motor_init) refers to stm32f10x_tim.o(i.TIM_OC3Init) for TIM_OC3Init
    motor.o(i.motor_init) refers to stm32f10x_tim.o(i.TIM_OC4Init) for TIM_OC4Init
    motor.o(i.motor_init) refers to stm32f10x_tim.o(i.TIM_OC1PreloadConfig) for TIM_OC1PreloadConfig
    motor.o(i.motor_init) refers to stm32f10x_tim.o(i.TIM_OC2PreloadConfig) for TIM_OC2PreloadConfig
    motor.o(i.motor_init) refers to stm32f10x_tim.o(i.TIM_OC3PreloadConfig) for TIM_OC3PreloadConfig
    motor.o(i.motor_init) refers to stm32f10x_tim.o(i.TIM_OC4PreloadConfig) for TIM_OC4PreloadConfig
    motor.o(i.motor_init) refers to stm32f10x_tim.o(i.TIM_Cmd) for TIM_Cmd
    motor.o(i.motor_init) refers to motor.o(i.Motor_Stop) for Motor_Stop
    motor.o(i.motor_init) refers to system_stm32f10x.o(.data) for SystemCoreClock
    motor.o(i.motor_output) refers to motor.o(i.thrust_bat_compensated) for thrust_bat_compensated
    motor.o(i.motor_output) refers to motor.o(.data) for .data
    motor.o(i.thrust_bat_compensated) refers to fflti.o(.text) for __aeabi_i2f
    motor.o(i.thrust_bat_compensated) refers to fdiv.o(.text) for __aeabi_fdiv
    motor.o(i.thrust_bat_compensated) refers to fmul.o(.text) for __aeabi_fmul
    motor.o(i.thrust_bat_compensated) refers to fadd.o(.text) for __aeabi_fadd
    motor.o(i.thrust_bat_compensated) refers to ffixi.o(.text) for __aeabi_f2iz
    motor.o(i.thrust_bat_compensated) refers to battery.o(.data) for gBattery
    motor.o(.data) refers to motor.o(i.motor_init) for motor_init
    motor.o(.data) refers to motor.o(i.motor_output) for motor_output
    motor.o(.data) refers to motor.o(i.Motor_Stop) for Motor_Stop
    led.o(i.led_init) refers to stm32f10x_rcc.o(i.RCC_APB2PeriphClockCmd) for RCC_APB2PeriphClockCmd
    led.o(i.led_init) refers to stm32f10x_gpio.o(i.GPIO_PinRemapConfig) for GPIO_PinRemapConfig
    led.o(i.led_init) refers to stm32f10x_gpio.o(i.GPIO_QuickInit) for GPIO_QuickInit
    led.o(i.led_ref) refers to bf_status_mini_global.o(.bss) for flag
    led.o(i.led_ref) refers to led.o(.data) for .data
    led.o(i.start_led) refers to stm32fx_delay.o(i.DelayMs) for DelayMs
    bf_status_mini_param.o(i.Flag_Clear) refers to queue.o(i.xQueueCreateMutex) for xQueueCreateMutex
    bf_status_mini_param.o(i.Flag_Clear) refers to bf_status_mini_global.o(.bss) for flag
    bf_status_mini_param.o(i.Flag_Clear) refers to bf_status_mini_ctrl.o(.bss) for gCtrl
    bf_status_mini_param.o(i.data_load) refers to stm32f10x_flash.o(i.FLASH_ReadHalfWord) for FLASH_ReadHalfWord
    bf_status_mini_param.o(i.data_load) refers to stm32f10x_flash.o(i.FLASH_ReadWord) for FLASH_ReadWord
    bf_status_mini_param.o(i.data_load) refers to fflti.o(.text) for __aeabi_i2f
    bf_status_mini_param.o(i.data_load) refers to fdiv.o(.text) for __aeabi_fdiv
    bf_status_mini_param.o(i.data_load) refers to mpu6050.o(.data) for gSensorMpu
    bf_status_mini_param.o(i.data_load) refers to bf_status_mini_global.o(.bss) for gSelfState
    bf_status_mini_param.o(i.data_save) refers to fmul.o(.text) for __aeabi_fmul
    bf_status_mini_param.o(i.data_save) refers to ffixi.o(.text) for __aeabi_f2iz
    bf_status_mini_param.o(i.data_save) refers to stm32f10x_flash.o(i.FLASH_Unlock) for FLASH_Unlock
    bf_status_mini_param.o(i.data_save) refers to stm32f10x_flash.o(i.FLASH_ErasePage) for FLASH_ErasePage
    bf_status_mini_param.o(i.data_save) refers to stm32f10x_flash.o(i.FLASH_ProgramHalfWord) for FLASH_ProgramHalfWord
    bf_status_mini_param.o(i.data_save) refers to stm32f10x_flash.o(i.FLASH_ProgramWord) for FLASH_ProgramWord
    bf_status_mini_param.o(i.data_save) refers to stm32f10x_flash.o(i.FLASH_Lock) for FLASH_Lock
    bf_status_mini_param.o(i.data_save) refers to bf_status_mini_global.o(.bss) for gSelfState
    bf_status_mini_param.o(i.data_save) refers to mpu6050.o(.data) for gSensorMpu
    bf_status_mini_param.o(i.param_init) refers to bf_status_mini_param.o(i.data_load) for data_load
    bf_status_mini_param.o(i.param_init) refers to bf_status_mini_ctrl.o(.bss) for gCtrl
    bf_status_mini_param.o(.data) refers to bf_status_mini_param.o(i.param_init) for param_init
    bf_status_mini_param.o(.data) refers to bf_status_mini_param.o(i.data_save) for data_save
    bf_status_mini_param.o(.data) refers to bf_status_mini_param.o(i.data_load) for data_load
    bf_status_mini_param.o(.data) refers to bf_status_mini_param.o(i.Flag_Clear) for Flag_Clear
    bf_status_mini_system.o(i.BSP_init) refers to hw_config.o(i.USB_Config) for USB_Config
    bf_status_mini_system.o(i.BSP_init) refers to led.o(i.led_init) for led_init
    bf_status_mini_system.o(i.BSP_init) refers to stm32f10x_i2c.o(i.I2C_INIT) for I2C_INIT
    bf_status_mini_system.o(i.BSP_init) refers to motor.o(.data) for gMotor
    bf_status_mini_system.o(i.BSP_init) refers to battery.o(.data) for gBattery
    bf_status_mini_system.o(i.Jump_To_IAP) refers to port.o(i.vPortEnterCritical) for vPortEnterCritical
    bf_status_mini_system.o(i.Jump_To_IAP) refers to stm32f10x_gpio.o(i.GPIO_PinRemapConfig) for GPIO_PinRemapConfig
    bf_status_mini_system.o(i.Jump_To_IAP) refers to stm32f10x_rcc.o(i.RCC_DeInit) for RCC_DeInit
    bf_status_mini_system.o(i.Jump_To_IAP) refers to stm32f10x_tim.o(i.TIM_DeInit) for TIM_DeInit
    bf_status_mini_system.o(i.Jump_To_IAP) refers to stm32f10x_gpio.o(i.GPIO_DeInit) for GPIO_DeInit
    bf_status_mini_system.o(i.Jump_To_IAP) refers to stm32f10x_usart.o(i.USART_DeInit) for USART_DeInit
    bf_status_mini_system.o(i.Jump_To_IAP) refers to bf_status_mini_system.o(i.NVIC_DeInit) for NVIC_DeInit
    bf_status_mini_system.o(i.Jump_To_IAP) refers to core_cm3.o(.emb_text) for __set_MSP
    bf_status_mini_system.o(i.Sensor_init) refers to printf1.o(i.__0printf$1) for __2printf
    bf_status_mini_system.o(i.Sensor_init) refers to stm32fx_delay.o(i.DelayMs) for DelayMs
    bf_status_mini_system.o(i.Sensor_init) refers to nrf24l01.o(.data) for gSensorNRF
    bf_status_mini_system.o(i.Sensor_init) refers to mpu6050.o(.data) for gSensorMpu
    bf_status_mini_system.o(i.Sensor_init) refers to bf_status_mini_global.o(.bss) for flag
    bf_status_mini_system.o(i.Sensor_init) refers to bmp280.o(.data) for gSensorBmp
    bf_status_mini_system.o(i.system_init) refers to misc.o(i.NVIC_SetVectorTable) for NVIC_SetVectorTable
    bf_status_mini_system.o(i.system_init) refers to misc.o(i.NVIC_PriorityGroupConfig) for NVIC_PriorityGroupConfig
    bf_status_mini_system.o(i.system_init) refers to bf_status_mini_system.o(i.BSP_init) for BSP_init
    bf_status_mini_system.o(i.system_init) refers to bf_status_mini_system.o(i.Sensor_init) for Sensor_init
    bf_status_mini_system.o(i.system_init) refers to led.o(i.start_led) for start_led
    bf_status_mini_system.o(i.system_init) refers to bf_status_mini_param.o(.data) for gParam
    bf_status_mini_math.o(i.Q_rsqrt) refers to fscalb.o(.text) for __ARM_scalbnf
    bf_status_mini_math.o(i.Q_rsqrt) refers to fmul.o(.text) for __aeabi_fmul
    bf_status_mini_math.o(i.Q_rsqrt) refers to fadd.o(.text) for __aeabi_frsub
    bf_status_mini_math.o(i.ScaleLinear) refers to cfrcmple.o(.text) for __aeabi_cfrcmple
    bf_status_mini_math.o(i.ScaleLinear) refers to fadd.o(.text) for __aeabi_fsub
    bf_status_mini_math.o(i.ScaleLinear) refers to fdiv.o(.text) for __aeabi_fdiv
    bf_status_mini_math.o(i.SelectSort) refers to ffixi.o(.text) for __aeabi_f2iz
    bf_status_mini_math.o(i.SelectSort) refers to fflti.o(.text) for __aeabi_i2f
    bf_status_mini_math.o(i.SelectSort) refers to cfrcmple.o(.text) for __aeabi_cfrcmple
    bf_status_mini_math.o(i.VariableParameter) refers to f2d.o(.text) for __aeabi_f2d
    bf_status_mini_math.o(i.VariableParameter) refers to dmul.o(.text) for __aeabi_dmul
    bf_status_mini_math.o(i.VariableParameter) refers to dadd.o(.text) for __aeabi_drsub
    bf_status_mini_math.o(i.VariableParameter) refers to d2f.o(.text) for __aeabi_d2f
    bf_status_mini_math.o(i.deadband) refers to cfcmple.o(.text) for __aeabi_cfcmple
    bf_status_mini_math.o(i.deadband) refers to fadd.o(.text) for __aeabi_fsub
    bf_status_mini_filter.o(i.IIR_I_Filter) refers to dmul.o(.text) for __aeabi_dmul
    bf_status_mini_filter.o(i.IIR_I_Filter) refers to dadd.o(.text) for __aeabi_dadd
    bf_status_mini_filter.o(i.LPF_1st) refers to fmul.o(.text) for __aeabi_fmul
    bf_status_mini_filter.o(i.LPF_1st) refers to fadd.o(.text) for __aeabi_fsub
    bf_status_mini_filter.o(i.Least_Square_Calc) refers to fadd.o(.text) for __aeabi_fadd
    bf_status_mini_filter.o(i.Least_Square_Calc) refers to fflti.o(.text) for __aeabi_i2f
    bf_status_mini_filter.o(i.Least_Square_Calc) refers to fdiv.o(.text) for __aeabi_fdiv
    bf_status_mini_filter.o(i.Least_Square_Calc) refers to fmul.o(.text) for __aeabi_fmul
    bf_status_mini_filter.o(i.Least_Square_Calc) refers to bf_status_mini_filter.o(.bss) for .bss
    bf_status_mini_filter.o(i.Least_Square_push) refers to bf_status_mini_filter.o(.bss) for .bss
    bf_status_mini_filter.o(i.lpf2pApply) refers to fmul.o(.text) for __aeabi_fmul
    bf_status_mini_filter.o(i.lpf2pApply) refers to fadd.o(.text) for __aeabi_frsub
    bf_status_mini_filter.o(i.lpf2pInit) refers to bf_status_mini_filter.o(i.lpf2pSetCutoffFreq) for lpf2pSetCutoffFreq
    bf_status_mini_filter.o(i.lpf2pSetCutoffFreq) refers to fdiv.o(.text) for __aeabi_fdiv
    bf_status_mini_filter.o(i.lpf2pSetCutoffFreq) refers to f2d.o(.text) for __aeabi_f2d
    bf_status_mini_filter.o(i.lpf2pSetCutoffFreq) refers to ddiv.o(.text) for __aeabi_ddiv
    bf_status_mini_filter.o(i.lpf2pSetCutoffFreq) refers to d2f.o(.text) for __aeabi_d2f
    bf_status_mini_filter.o(i.lpf2pSetCutoffFreq) refers to tanf.o(i.tanf) for tanf
    bf_status_mini_filter.o(i.lpf2pSetCutoffFreq) refers to fmul.o(.text) for __aeabi_fmul
    bf_status_mini_filter.o(i.lpf2pSetCutoffFreq) refers to cosf.o(i.cosf) for cosf
    bf_status_mini_filter.o(i.lpf2pSetCutoffFreq) refers to fscalb.o(.text) for __ARM_scalbnf
    bf_status_mini_filter.o(i.lpf2pSetCutoffFreq) refers to fadd.o(.text) for __aeabi_fadd
    bf_status_mini_filter.o(i.presssureFilter) refers to fadd.o(.text) for __aeabi_fsub
    bf_status_mini_filter.o(i.presssureFilter) refers to cfcmple.o(.text) for __aeabi_cfcmple
    bf_status_mini_filter.o(i.presssureFilter) refers to f2d.o(.text) for __aeabi_f2d
    bf_status_mini_filter.o(i.presssureFilter) refers to dadd.o(.text) for __aeabi_dadd
    bf_status_mini_filter.o(i.presssureFilter) refers to ddiv.o(.text) for __aeabi_ddiv
    bf_status_mini_filter.o(i.presssureFilter) refers to d2f.o(.text) for __aeabi_d2f
    bf_status_mini_filter.o(i.presssureFilter) refers to bf_status_mini_filter.o(.bss) for .bss
    bf_status_mini_filter.o(i.presssureFilter) refers to bf_status_mini_filter.o(.data) for .data
    bf_status_mini_ctrl.o(i.AltControl) refers to fadd.o(.text) for __aeabi_fsub
    bf_status_mini_ctrl.o(i.AltControl) refers to bf_status_mini_ctrl.o(i.RunPID) for RunPID
    bf_status_mini_ctrl.o(i.AltControl) refers to bf_status_mini_ctrl.o(i.detecWeight) for detecWeight
    bf_status_mini_ctrl.o(i.AltControl) refers to fflti.o(.text) for __aeabi_i2f
    bf_status_mini_ctrl.o(i.AltControl) refers to bf_status_mini_global.o(.bss) for flag
    bf_status_mini_ctrl.o(i.AltControl) refers to bf_status_mini_global.o(.bss) for gSelfState
    bf_status_mini_ctrl.o(i.AltControl) refers to bf_status_mini_ctrl.o(.bss) for .bss
    bf_status_mini_ctrl.o(i.AltControl) refers to bf_status_mini_rc.o(.data) for gRCData
    bf_status_mini_ctrl.o(i.AltControl) refers to bf_status_mini_ctrl.o(.data) for .data
    bf_status_mini_ctrl.o(i.Calculate_Target) refers to fflti.o(.text) for __aeabi_i2f
    bf_status_mini_ctrl.o(i.Calculate_Target) refers to bf_status_mini_math.o(i.ScaleLinear) for ScaleLinear
    bf_status_mini_ctrl.o(i.Calculate_Target) refers to fmul.o(.text) for __aeabi_fmul
    bf_status_mini_ctrl.o(i.Calculate_Target) refers to fadd.o(.text) for __aeabi_fsub
    bf_status_mini_ctrl.o(i.Calculate_Target) refers to cosf.o(i.cosf) for cosf
    bf_status_mini_ctrl.o(i.Calculate_Target) refers to sinf.o(i.sinf) for sinf
    bf_status_mini_ctrl.o(i.Calculate_Target) refers to fdiv.o(.text) for __aeabi_fdiv
    bf_status_mini_ctrl.o(i.Calculate_Target) refers to bf_status_mini_ctrl.o(i.TakeOff) for TakeOff
    bf_status_mini_ctrl.o(i.Calculate_Target) refers to f2d.o(.text) for __aeabi_f2d
    bf_status_mini_ctrl.o(i.Calculate_Target) refers to dmul.o(.text) for __aeabi_dmul
    bf_status_mini_ctrl.o(i.Calculate_Target) refers to dadd.o(.text) for __aeabi_dadd
    bf_status_mini_ctrl.o(i.Calculate_Target) refers to d2f.o(.text) for __aeabi_d2f
    bf_status_mini_ctrl.o(i.Calculate_Target) refers to bf_status_mini_rc.o(.data) for gRCData
    bf_status_mini_ctrl.o(i.Calculate_Target) refers to bf_status_mini_ctrl.o(.bss) for .bss
    bf_status_mini_ctrl.o(i.Calculate_Target) refers to bf_status_mini_ctrl.o(.data) for .data
    bf_status_mini_ctrl.o(i.Calculate_Target) refers to imu.o(.data) for gIMU
    bf_status_mini_ctrl.o(i.Calculate_Target) refers to bf_status_mini_global.o(.bss) for flag
    bf_status_mini_ctrl.o(i.Calculate_Target) refers to bf_status_mini_global.o(.bss) for gSelfState
    bf_status_mini_ctrl.o(i.Control) refers to bf_status_mini_ctrl.o(i.Calculate_Target) for Calculate_Target
    bf_status_mini_ctrl.o(i.Control) refers to fadd.o(.text) for __aeabi_fsub
    bf_status_mini_ctrl.o(i.Control) refers to bf_status_mini_ctrl.o(i.RunPID) for RunPID
    bf_status_mini_ctrl.o(i.Control) refers to bf_status_mini_ctrl.o(i.AltControl) for AltControl
    bf_status_mini_ctrl.o(i.Control) refers to ffixi.o(.text) for __aeabi_f2iz
    bf_status_mini_ctrl.o(i.Control) refers to bf_status_mini_ctrl.o(i.CorePID) for CorePID
    bf_status_mini_ctrl.o(i.Control) refers to bf_status_mini_ctrl.o(i.MotorOutPut) for MotorOutPut
    bf_status_mini_ctrl.o(i.Control) refers to bf_status_mini_ctrl.o(.bss) for .bss
    bf_status_mini_ctrl.o(i.Control) refers to imu.o(.data) for gIMU
    bf_status_mini_ctrl.o(i.CorePID) refers to fmul.o(.text) for __aeabi_fmul
    bf_status_mini_ctrl.o(i.CorePID) refers to fadd.o(.text) for __aeabi_fadd
    bf_status_mini_ctrl.o(i.CorePID) refers to bf_status_mini_ctrl.o(i.IntegralClear) for IntegralClear
    bf_status_mini_ctrl.o(i.CorePID) refers to bf_status_mini_ctrl.o(i.RunPID) for RunPID
    bf_status_mini_ctrl.o(i.CorePID) refers to fscalb.o(.text) for __ARM_scalbnf
    bf_status_mini_ctrl.o(i.CorePID) refers to f2d.o(.text) for __aeabi_f2d
    bf_status_mini_ctrl.o(i.CorePID) refers to dmul.o(.text) for __aeabi_dmul
    bf_status_mini_ctrl.o(i.CorePID) refers to dadd.o(.text) for __aeabi_dadd
    bf_status_mini_ctrl.o(i.CorePID) refers to d2f.o(.text) for __aeabi_d2f
    bf_status_mini_ctrl.o(i.CorePID) refers to bf_status_mini_global.o(.bss) for flag
    bf_status_mini_ctrl.o(i.CorePID) refers to bf_status_mini_ctrl.o(.bss) for .bss
    bf_status_mini_ctrl.o(i.CorePID) refers to mpu6050.o(.data) for gSensorMpu
    bf_status_mini_ctrl.o(i.CorePID) refers to bf_status_mini_ctrl.o(.data) for .data
    bf_status_mini_ctrl.o(i.IntegralClear) refers to bf_status_mini_ctrl.o(.bss) for .bss
    bf_status_mini_ctrl.o(i.MotorOutPut) refers to ffixi.o(.text) for __aeabi_f2iz
    bf_status_mini_ctrl.o(i.MotorOutPut) refers to bf_status_mini_ctrl.o(i.IntegralClear) for IntegralClear
    bf_status_mini_ctrl.o(i.MotorOutPut) refers to bf_status_mini_ctrl.o(.bss) for .bss
    bf_status_mini_ctrl.o(i.MotorOutPut) refers to bf_status_mini_rc.o(.data) for gRCData
    bf_status_mini_ctrl.o(i.MotorOutPut) refers to bf_status_mini_global.o(.bss) for flag
    bf_status_mini_ctrl.o(i.MotorOutPut) refers to motor.o(.data) for gMotor
    bf_status_mini_ctrl.o(i.MotorOutPut) refers to bf_status_mini_ctrl.o(.data) for .data
    bf_status_mini_ctrl.o(i.RunPID) refers to fmul.o(.text) for __aeabi_fmul
    bf_status_mini_ctrl.o(i.RunPID) refers to fadd.o(.text) for __aeabi_fadd
    bf_status_mini_ctrl.o(i.RunPID) refers to cfrcmple.o(.text) for __aeabi_cfrcmple
    bf_status_mini_ctrl.o(i.RunPID) refers to fdiv.o(.text) for __aeabi_fdiv
    bf_status_mini_ctrl.o(i.TakeOff) refers to bf_status_mini_ctrl.o(.data) for .data
    bf_status_mini_ctrl.o(i.TakeOff) refers to bf_status_mini_global.o(.bss) for flag
    bf_status_mini_ctrl.o(i.TakeOff) refers to bf_status_mini_global.o(.bss) for gSelfState
    bf_status_mini_ctrl.o(i.TakeOff) refers to bf_status_mini_ctrl.o(.bss) for .bss
    bf_status_mini_ctrl.o(i.detecWeight) refers to fadd.o(.text) for __aeabi_fadd
    bf_status_mini_ctrl.o(i.detecWeight) refers to fdiv.o(.text) for __aeabi_fdiv
    bf_status_mini_ctrl.o(i.detecWeight) refers to ffixui.o(.text) for __aeabi_f2uiz
    bf_status_mini_ctrl.o(i.detecWeight) refers to ffltui.o(.text) for __aeabi_ui2f
    bf_status_mini_ctrl.o(i.detecWeight) refers to bf_status_mini_ctrl.o(.data) for .data
    bf_status_mini_ctrl.o(i.detecWeight) refers to bf_status_mini_ctrl.o(.bss) for .bss
    bf_status_mini_rc.o(i.RC_GetData) refers to fflti.o(.text) for __aeabi_i2f
    bf_status_mini_rc.o(i.RC_GetData) refers to nrf24l01.o(.data) for gSensorNRF
    bf_status_mini_rc.o(i.RC_GetData) refers to bf_status_mini_rc.o(.data) for .data
    bf_status_mini_rc.o(i.RC_GetData) refers to bf_status_mini_global.o(.bss) for flag
    bf_status_mini_rc.o(i.RC_GetData) refers to imu.o(.data) for gIMU
    bf_status_mini_rc.o(i.RC_GetData) refers to bf_status_mini_ctrl.o(.bss) for gTarget
    bf_status_mini_rc.o(i.RC_GetData) refers to bf_status_mini_global.o(.bss) for gSelfState
    bf_status_mini_rc.o(i.RC_SendData) refers to fmul.o(.text) for __aeabi_fmul
    bf_status_mini_rc.o(i.RC_SendData) refers to ffixui.o(.text) for __aeabi_f2uiz
    bf_status_mini_rc.o(i.RC_SendData) refers to ffixi.o(.text) for __aeabi_f2iz
    bf_status_mini_rc.o(i.RC_SendData) refers to nrf24l01.o(.data) for gSensorNRF
    bf_status_mini_rc.o(i.RC_SendData) refers to bf_status_mini_global.o(.bss) for flag
    bf_status_mini_rc.o(i.RC_SendData) refers to battery.o(.data) for gBattery
    bf_status_mini_rc.o(i.RC_SendData) refers to bf_status_mini_rc.o(.data) for .data
    bf_status_mini_rc.o(i.RC_SendData) refers to imu.o(.data) for gIMU
    bf_status_mini_rc.o(i.RC_SendData) refers to bf_status_mini_global.o(.bss) for gSelfState
    bf_status_mini_rc.o(i.RC_SendData) refers to bf_status_mini_ctrl.o(.bss) for gTarget
    bf_status_mini_rc.o(i.RC_SendData) refers to motor.o(.data) for gMotor
    imu.o(i.Angle_Get) refers to imu.o(i.Sensor_Get) for Sensor_Get
    imu.o(i.Angle_Get) refers to imu.o(i.Quaternion_Get) for Quaternion_Get
    imu.o(i.Angle_Get) refers to imu.o(i.Quaternion_ToAngE) for Quaternion_ToAngE
    imu.o(i.Angle_Get) refers to imu.o(.data) for .data
    imu.o(i.Quaternion_Get) refers to fmul.o(.text) for __aeabi_fmul
    imu.o(i.Quaternion_Get) refers to fadd.o(.text) for __aeabi_fadd
    imu.o(i.Quaternion_Get) refers to bf_status_mini_math.o(i.Q_rsqrt) for Q_rsqrt
    imu.o(i.Quaternion_Get) refers to fscalb.o(.text) for __ARM_scalbnf
    imu.o(i.Quaternion_Get) refers to f2d.o(.text) for __aeabi_f2d
    imu.o(i.Quaternion_Get) refers to dmul.o(.text) for __aeabi_dmul
    imu.o(i.Quaternion_Get) refers to ddiv.o(.text) for __aeabi_ddiv
    imu.o(i.Quaternion_Get) refers to dadd.o(.text) for __aeabi_dadd
    imu.o(i.Quaternion_Get) refers to d2f.o(.text) for __aeabi_d2f
    imu.o(i.Quaternion_Get) refers to mpu6050.o(.data) for gSensorMpu
    imu.o(i.Quaternion_Get) refers to imu.o(.data) for .data
    imu.o(i.Quaternion_ToAngE) refers to fmul.o(.text) for __aeabi_fmul
    imu.o(i.Quaternion_ToAngE) refers to fadd.o(.text) for __aeabi_fadd
    imu.o(i.Quaternion_ToAngE) refers to fscalb.o(.text) for __ARM_scalbnf
    imu.o(i.Quaternion_ToAngE) refers to asinf.o(i.asinf) for asinf
    imu.o(i.Quaternion_ToAngE) refers to atan2f.o(i.atan2f) for atan2f
    imu.o(i.Quaternion_ToAngE) refers to f2d.o(.text) for __aeabi_f2d
    imu.o(i.Quaternion_ToAngE) refers to ddiv.o(.text) for __aeabi_ddiv
    imu.o(i.Quaternion_ToAngE) refers to dmul.o(.text) for __aeabi_dmul
    imu.o(i.Quaternion_ToAngE) refers to d2f.o(.text) for __aeabi_d2f
    imu.o(i.Quaternion_ToAngE) refers to bf_status_mini_filter.o(i.LPF_1st) for LPF_1st
    imu.o(i.Quaternion_ToAngE) refers to bf_status_mini_math.o(i.deadband) for deadband
    imu.o(i.Quaternion_ToAngE) refers to bf_status_mini_global.o(.bss) for flag
    imu.o(i.Quaternion_ToAngE) refers to mpu6050.o(.data) for gSensorMpu
    imu.o(i.Quaternion_ToAngE) refers to bf_status_mini_global.o(.bss) for gSelfState
    imu.o(i.Quaternion_ToAngE) refers to imu.o(.data) for .data
    imu.o(i.Quaternion_ToAngE) refers to bmp280.o(.data) for gSensorBmp
    imu.o(i.Quaternion_ToAngE) refers to bf_status_mini_param.o(.data) for gParam
    imu.o(i.Sensor_Get) refers to queue.o(i.xQueueGenericReceive) for xQueueGenericReceive
    imu.o(i.Sensor_Get) refers to queue.o(i.xQueueGenericSend) for xQueueGenericSend
    imu.o(i.Sensor_Get) refers to fscalb.o(.text) for __ARM_scalbnf
    imu.o(i.Sensor_Get) refers to f2d.o(.text) for __aeabi_f2d
    imu.o(i.Sensor_Get) refers to bf_status_mini_filter.o(i.IIR_I_Filter) for IIR_I_Filter
    imu.o(i.Sensor_Get) refers to d2f.o(.text) for __aeabi_d2f
    imu.o(i.Sensor_Get) refers to fmul.o(.text) for __aeabi_fmul
    imu.o(i.Sensor_Get) refers to bf_status_mini_filter.o(i.LPF_1st) for LPF_1st
    imu.o(i.Sensor_Get) refers to bf_status_mini_global.o(.bss) for flag
    imu.o(i.Sensor_Get) refers to mpu6050.o(.data) for gSensorMpu
    imu.o(i.Sensor_Get) refers to bmp280.o(.data) for gSensorBmp
    imu.o(i.Sensor_Get) refers to bf_status_mini_filter.o(.data) for a_IIR
    imu.o(i.Sensor_Get) refers to bf_status_mini_filter.o(.data) for b_IIR
    imu.o(i.Sensor_Get) refers to bf_status_mini_filter.o(.bss) for OutPut_IIR
    imu.o(i.Sensor_Get) refers to bf_status_mini_filter.o(.bss) for InPut_IIR
    imu.o(i.Sensor_Get) refers to imu.o(.data) for .data
    imu.o(.data) refers to imu.o(i.Angle_Get) for Angle_Get
    kalman_filter.o(i.kalmanUpdate) refers to fadd.o(.text) for __aeabi_fsub
    kalman_filter.o(i.kalmanUpdate) refers to f2d.o(.text) for __aeabi_f2d
    kalman_filter.o(i.kalmanUpdate) refers to dadd.o(.text) for __aeabi_drsub
    kalman_filter.o(i.kalmanUpdate) refers to d2f.o(.text) for __aeabi_d2f
    kalman_filter.o(i.kalmanUpdate) refers to fmul.o(.text) for __aeabi_fmul
    kalman_filter.o(i.kalmanUpdate) refers to fdiv.o(.text) for __aeabi_fdiv
    kalman_filter.o(i.kalmanUpdate) refers to kalman_filter.o(.data) for .data
    app.o(i.Task_Ctrl) refers to tasks.o(i.xTaskGetTickCount) for xTaskGetTickCount
    app.o(i.Task_Ctrl) refers to tasks.o(i.vTaskDelayUntil) for vTaskDelayUntil
    app.o(i.Task_Ctrl) refers to bf_status_mini_ctrl.o(i.Control) for Control
    app.o(i.Task_Ctrl) refers to imu.o(.data) for gIMU
    app.o(i.Task_RC) refers to tasks.o(i.xTaskGetTickCount) for xTaskGetTickCount
    app.o(i.Task_RC) refers to tasks.o(i.vTaskDelayUntil) for vTaskDelayUntil
    app.o(i.Task_RC) refers to bf_status_mini_rc.o(i.RC_GetData) for RC_GetData
    app.o(i.Task_RC) refers to bf_status_mini_rc.o(i.RC_SendData) for RC_SendData
    app.o(i.Task_Start) refers to port.o(i.vPortEnterCritical) for vPortEnterCritical
    app.o(i.Task_Start) refers to tasks.o(i.xTaskCreate) for xTaskCreate
    app.o(i.Task_Start) refers to heap_2.o(i.xPortGetFreeHeapSize) for xPortGetFreeHeapSize
    app.o(i.Task_Start) refers to printf1.o(i.__0printf$1) for __2printf
    app.o(i.Task_Start) refers to tasks.o(i.vTaskDelete) for vTaskDelete
    app.o(i.Task_Start) refers to port.o(i.vPortExitCritical) for vPortExitCritical
    app.o(i.Task_Start) refers to app.o(i.Task_Ctrl) for Task_Ctrl
    app.o(i.Task_Start) refers to app.o(i.Task_RC) for Task_RC
    app.o(i.Task_Start) refers to app.o(i.Task_USB) for Task_USB
    app.o(i.Task_Start) refers to app.o(i.Task_SysSta) for Task_SysSta
    app.o(i.Task_Start) refers to app.o(.data) for .data
    app.o(i.Task_SysSta) refers to tasks.o(i.xTaskGetTickCount) for xTaskGetTickCount
    app.o(i.Task_SysSta) refers to tasks.o(i.vTaskDelayUntil) for vTaskDelayUntil
    app.o(i.Task_SysSta) refers to led.o(i.led_ref) for led_ref
    app.o(i.Task_SysSta) refers to stm32f10x_gpio.o(i.GPIO_ReadInputDataBit) for GPIO_ReadInputDataBit
    app.o(i.Task_SysSta) refers to stm32f10x_gpio.o(i.GPIO_ResetBits) for GPIO_ResetBits
    app.o(i.Task_SysSta) refers to bf_status_mini_global.o(.bss) for flag
    app.o(i.Task_SysSta) refers to battery.o(.data) for gBattery
    app.o(i.Task_USB) refers to tasks.o(i.xTaskGetTickCount) for xTaskGetTickCount
    app.o(i.Task_USB) refers to tasks.o(i.vTaskDelayUntil) for vTaskDelayUntil
    app.o(i.Task_USB) refers to datascope_dp.o(i.Send_Once) for Send_Once
    app.o(i.Task_USB) refers to hw_config.o(i.USB_RxRead) for USB_RxRead
    app.o(i.Task_USB) refers to bf_status_mini_system.o(i.Jump_To_IAP) for Jump_To_IAP
    app.o(i.Task_USB) refers to bf_status_mini_global.o(.bss) for flag
    main.o(i.main) refers to bf_status_mini_system.o(i.system_init) for system_init
    main.o(i.main) refers to tasks.o(i.xTaskCreate) for xTaskCreate
    main.o(i.main) refers to tasks.o(i.vTaskStartScheduler) for vTaskStartScheduler
    main.o(i.main) refers to app.o(.data) for startTaskHandle
    main.o(i.main) refers to app.o(i.Task_Start) for Task_Start
    hw_config.o(i.Enter_LowPowerMode) refers to usb_pwr.o(.data) for bDeviceState
    hw_config.o(i.Get_SerialNum) refers to hw_config.o(i.IntToUnicode) for IntToUnicode
    hw_config.o(i.Get_SerialNum) refers to usb_desc.o(.data) for Virtual_Com_Port_StringSerial
    hw_config.o(i.Leave_LowPowerMode) refers to usb_init.o(.bss) for Device_Info
    hw_config.o(i.Leave_LowPowerMode) refers to usb_pwr.o(.data) for bDeviceState
    hw_config.o(i.Set_System) refers to usb_queue.o(i.QUEUE_PacketCreate) for QUEUE_PacketCreate
    hw_config.o(i.Set_System) refers to stm32f10x_rcc.o(i.RCC_APB2PeriphClockCmd) for RCC_APB2PeriphClockCmd
    hw_config.o(i.Set_System) refers to stm32f10x_gpio.o(i.GPIO_Init) for GPIO_Init
    hw_config.o(i.Set_System) refers to stm32f10x_exti.o(i.EXTI_ClearITPendingBit) for EXTI_ClearITPendingBit
    hw_config.o(i.Set_System) refers to stm32f10x_exti.o(i.EXTI_Init) for EXTI_Init
    hw_config.o(i.Set_System) refers to hw_config.o(.bss) for .bss
    hw_config.o(i.Set_System) refers to hw_config.o(.data) for .data
    hw_config.o(i.Set_USBClock) refers to stm32f10x_rcc.o(i.RCC_USBCLKConfig) for RCC_USBCLKConfig
    hw_config.o(i.Set_USBClock) refers to stm32f10x_rcc.o(i.RCC_APB1PeriphClockCmd) for RCC_APB1PeriphClockCmd
    hw_config.o(i.USB_Cable_Config) refers to stm32f10x_gpio.o(i.GPIO_SetBits) for GPIO_SetBits
    hw_config.o(i.USB_Cable_Config) refers to stm32f10x_gpio.o(i.GPIO_ResetBits) for GPIO_ResetBits
    hw_config.o(i.USB_Config) refers to hw_config.o(i.Set_System) for Set_System
    hw_config.o(i.USB_Config) refers to hw_config.o(i.Set_USBClock) for Set_USBClock
    hw_config.o(i.USB_Config) refers to hw_config.o(i.USB_Interrupts_Config) for USB_Interrupts_Config
    hw_config.o(i.USB_Config) refers to usb_init.o(i.USB_Init) for USB_Init
    hw_config.o(i.USB_Interrupts_Config) refers to misc.o(i.NVIC_Init) for NVIC_Init
    hw_config.o(i.USB_RxRead) refers to usb_queue.o(i.QUEUE_PacketOut) for QUEUE_PacketOut
    hw_config.o(i.USB_RxRead) refers to hw_config.o(.bss) for .bss
    hw_config.o(i.USB_RxWrite) refers to usb_queue.o(i.QUEUE_PacketIn) for QUEUE_PacketIn
    hw_config.o(i.USB_RxWrite) refers to hw_config.o(.bss) for .bss
    hw_config.o(i.USB_TxRead) refers to usb_queue.o(i.QUEUE_PacketOut) for QUEUE_PacketOut
    hw_config.o(i.USB_TxRead) refers to hw_config.o(.bss) for .bss
    hw_config.o(i.USB_TxWrite) refers to usb_queue.o(i.QUEUE_PacketIn) for QUEUE_PacketIn
    hw_config.o(i.USB_TxWrite) refers to hw_config.o(.bss) for .bss
    hw_config.o(i.fgetc) refers to hw_config.o(i.USB_RxRead) for USB_RxRead
    hw_config.o(i.fputc) refers to hw_config.o(i.USB_TxWrite) for USB_TxWrite
    usb_endp.o(i.EP1_IN_Callback) refers to hw_config.o(i.USB_TxRead) for USB_TxRead
    usb_endp.o(i.EP1_IN_Callback) refers to usb_mem.o(i.UserToPMABufferCopy) for UserToPMABufferCopy
    usb_endp.o(i.EP1_IN_Callback) refers to usb_regs.o(i.SetEPTxCount) for SetEPTxCount
    usb_endp.o(i.EP1_IN_Callback) refers to usb_regs.o(i.SetEPTxValid) for SetEPTxValid
    usb_endp.o(i.EP1_IN_Callback) refers to usb_endp.o(.data) for .data
    usb_endp.o(i.EP1_IN_Callback) refers to usb_endp.o(.bss) for .bss
    usb_endp.o(i.EP3_OUT_Callback) refers to usb_sil.o(i.USB_SIL_Read) for USB_SIL_Read
    usb_endp.o(i.EP3_OUT_Callback) refers to hw_config.o(i.USB_RxWrite) for USB_RxWrite
    usb_endp.o(i.EP3_OUT_Callback) refers to usb_regs.o(i.SetEPRxValid) for SetEPRxValid
    usb_endp.o(i.EP3_OUT_Callback) refers to usb_endp.o(.bss) for .bss
    usb_endp.o(i.SOF_Callback) refers to hw_config.o(i.USB_TxRead) for USB_TxRead
    usb_endp.o(i.SOF_Callback) refers to usb_mem.o(i.UserToPMABufferCopy) for UserToPMABufferCopy
    usb_endp.o(i.SOF_Callback) refers to usb_regs.o(i.SetEPTxCount) for SetEPTxCount
    usb_endp.o(i.SOF_Callback) refers to usb_regs.o(i.SetEPTxValid) for SetEPTxValid
    usb_endp.o(i.SOF_Callback) refers to usb_pwr.o(.data) for bDeviceState
    usb_endp.o(i.SOF_Callback) refers to usb_endp.o(.data) for .data
    usb_endp.o(i.SOF_Callback) refers to usb_endp.o(.bss) for .bss
    usb_istr.o(i.USB_Istr) refers to usb_endp.o(i.SOF_Callback) for SOF_Callback
    usb_istr.o(i.USB_Istr) refers to usb_int.o(i.CTR_LP) for CTR_LP
    usb_istr.o(i.USB_Istr) refers to usb_pwr.o(i.Resume) for Resume
    usb_istr.o(i.USB_Istr) refers to usb_pwr.o(i.Suspend) for Suspend
    usb_istr.o(i.USB_Istr) refers to usb_istr.o(.data) for .data
    usb_istr.o(i.USB_Istr) refers to usb_init.o(.data) for wInterrupt_Mask
    usb_istr.o(i.USB_Istr) refers to usb_prop.o(.data) for Device_Property
    usb_istr.o(i.USB_Istr) refers to usb_pwr.o(.data) for fSuspendEnabled
    usb_istr.o(.data) refers to usb_endp.o(i.EP1_IN_Callback) for EP1_IN_Callback
    usb_istr.o(.data) refers to usb_core.o(i.NOP_Process) for NOP_Process
    usb_istr.o(.data) refers to usb_core.o(i.NOP_Process) for NOP_Process
    usb_istr.o(.data) refers to usb_endp.o(i.EP3_OUT_Callback) for EP3_OUT_Callback
    usb_it.o(i.USBWakeUp_IRQHandler) refers to stm32f10x_exti.o(i.EXTI_ClearITPendingBit) for EXTI_ClearITPendingBit
    usb_it.o(i.USB_LP_CAN1_RX0_IRQHandler) refers to usb_istr.o(i.USB_Istr) for USB_Istr
    usb_prop.o(i.Virtual_Com_Port_Data_Setup) refers to usb_init.o(.data) for pInformation
    usb_prop.o(i.Virtual_Com_Port_Data_Setup) refers to usb_prop.o(i.Virtual_Com_Port_GetLineCoding) for Virtual_Com_Port_GetLineCoding
    usb_prop.o(i.Virtual_Com_Port_Data_Setup) refers to usb_prop.o(i.Virtual_Com_Port_SetLineCoding) for Virtual_Com_Port_SetLineCoding
    usb_prop.o(i.Virtual_Com_Port_Data_Setup) refers to usb_prop.o(.data) for .data
    usb_prop.o(i.Virtual_Com_Port_GetConfigDescriptor) refers to usb_core.o(i.Standard_GetDescriptorData) for Standard_GetDescriptorData
    usb_prop.o(i.Virtual_Com_Port_GetConfigDescriptor) refers to usb_prop.o(.data) for .data
    usb_prop.o(i.Virtual_Com_Port_GetDeviceDescriptor) refers to usb_core.o(i.Standard_GetDescriptorData) for Standard_GetDescriptorData
    usb_prop.o(i.Virtual_Com_Port_GetDeviceDescriptor) refers to usb_prop.o(.data) for .data
    usb_prop.o(i.Virtual_Com_Port_GetLineCoding) refers to usb_prop.o(.data) for .data
    usb_prop.o(i.Virtual_Com_Port_GetLineCoding) refers to usb_init.o(.data) for pInformation
    usb_prop.o(i.Virtual_Com_Port_GetStringDescriptor) refers to usb_core.o(i.Standard_GetDescriptorData) for Standard_GetDescriptorData
    usb_prop.o(i.Virtual_Com_Port_GetStringDescriptor) refers to usb_init.o(.data) for pInformation
    usb_prop.o(i.Virtual_Com_Port_GetStringDescriptor) refers to usb_prop.o(.data) for .data
    usb_prop.o(i.Virtual_Com_Port_NoData_Setup) refers to usb_init.o(.data) for pInformation
    usb_prop.o(i.Virtual_Com_Port_Reset) refers to usb_regs.o(i.SetBTABLE) for SetBTABLE
    usb_prop.o(i.Virtual_Com_Port_Reset) refers to usb_regs.o(i.SetEPType) for SetEPType
    usb_prop.o(i.Virtual_Com_Port_Reset) refers to usb_regs.o(i.SetEPTxStatus) for SetEPTxStatus
    usb_prop.o(i.Virtual_Com_Port_Reset) refers to usb_regs.o(i.SetEPRxAddr) for SetEPRxAddr
    usb_prop.o(i.Virtual_Com_Port_Reset) refers to usb_regs.o(i.SetEPTxAddr) for SetEPTxAddr
    usb_prop.o(i.Virtual_Com_Port_Reset) refers to usb_regs.o(i.Clear_Status_Out) for Clear_Status_Out
    usb_prop.o(i.Virtual_Com_Port_Reset) refers to usb_regs.o(i.SetEPRxCount) for SetEPRxCount
    usb_prop.o(i.Virtual_Com_Port_Reset) refers to usb_regs.o(i.SetEPRxValid) for SetEPRxValid
    usb_prop.o(i.Virtual_Com_Port_Reset) refers to usb_regs.o(i.SetEPRxStatus) for SetEPRxStatus
    usb_prop.o(i.Virtual_Com_Port_Reset) refers to usb_core.o(i.SetDeviceAddress) for SetDeviceAddress
    usb_prop.o(i.Virtual_Com_Port_Reset) refers to usb_init.o(.data) for pInformation
    usb_prop.o(i.Virtual_Com_Port_Reset) refers to usb_desc.o(.constdata) for Virtual_Com_Port_ConfigDescriptor
    usb_prop.o(i.Virtual_Com_Port_Reset) refers to usb_prop.o(.data) for .data
    usb_prop.o(i.Virtual_Com_Port_Reset) refers to usb_pwr.o(.data) for bDeviceState
    usb_prop.o(i.Virtual_Com_Port_SetConfiguration) refers to usb_init.o(.bss) for Device_Info
    usb_prop.o(i.Virtual_Com_Port_SetConfiguration) refers to usb_pwr.o(.data) for bDeviceState
    usb_prop.o(i.Virtual_Com_Port_SetDeviceAddress) refers to usb_pwr.o(.data) for bDeviceState
    usb_prop.o(i.Virtual_Com_Port_SetLineCoding) refers to usb_prop.o(.data) for .data
    usb_prop.o(i.Virtual_Com_Port_SetLineCoding) refers to usb_init.o(.data) for pInformation
    usb_prop.o(i.Virtual_Com_Port_Status_In) refers to usb_prop.o(.data) for .data
    usb_prop.o(i.Virtual_Com_Port_init) refers to hw_config.o(i.Get_SerialNum) for Get_SerialNum
    usb_prop.o(i.Virtual_Com_Port_init) refers to usb_pwr.o(i.PowerOn) for PowerOn
    usb_prop.o(i.Virtual_Com_Port_init) refers to usb_sil.o(i.USB_SIL_Init) for USB_SIL_Init
    usb_prop.o(i.Virtual_Com_Port_init) refers to usb_init.o(.data) for pInformation
    usb_prop.o(i.Virtual_Com_Port_init) refers to usb_pwr.o(.data) for bDeviceState
    usb_prop.o(.data) refers to usb_desc.o(.constdata) for Virtual_Com_Port_DeviceDescriptor
    usb_prop.o(.data) refers to usb_desc.o(.constdata) for Virtual_Com_Port_ConfigDescriptor
    usb_prop.o(.data) refers to usb_prop.o(i.Virtual_Com_Port_init) for Virtual_Com_Port_init
    usb_prop.o(.data) refers to usb_prop.o(i.Virtual_Com_Port_Reset) for Virtual_Com_Port_Reset
    usb_prop.o(.data) refers to usb_prop.o(i.Virtual_Com_Port_Status_In) for Virtual_Com_Port_Status_In
    usb_prop.o(.data) refers to usb_prop.o(i.Virtual_Com_Port_Status_Out) for Virtual_Com_Port_Status_Out
    usb_prop.o(.data) refers to usb_prop.o(i.Virtual_Com_Port_Data_Setup) for Virtual_Com_Port_Data_Setup
    usb_prop.o(.data) refers to usb_prop.o(i.Virtual_Com_Port_NoData_Setup) for Virtual_Com_Port_NoData_Setup
    usb_prop.o(.data) refers to usb_prop.o(i.Virtual_Com_Port_Get_Interface_Setting) for Virtual_Com_Port_Get_Interface_Setting
    usb_prop.o(.data) refers to usb_prop.o(i.Virtual_Com_Port_GetDeviceDescriptor) for Virtual_Com_Port_GetDeviceDescriptor
    usb_prop.o(.data) refers to usb_prop.o(i.Virtual_Com_Port_GetConfigDescriptor) for Virtual_Com_Port_GetConfigDescriptor
    usb_prop.o(.data) refers to usb_prop.o(i.Virtual_Com_Port_GetStringDescriptor) for Virtual_Com_Port_GetStringDescriptor
    usb_prop.o(.data) refers to usb_desc.o(.constdata) for Virtual_Com_Port_StringLangID
    usb_prop.o(.data) refers to usb_desc.o(.constdata) for Virtual_Com_Port_StringVendor
    usb_prop.o(.data) refers to usb_desc.o(.constdata) for Virtual_Com_Port_StringProduct
    usb_prop.o(.data) refers to usb_desc.o(.data) for Virtual_Com_Port_StringSerial
    usb_prop.o(.data) refers to usb_core.o(i.NOP_Process) for NOP_Process
    usb_prop.o(.data) refers to usb_prop.o(i.Virtual_Com_Port_SetConfiguration) for Virtual_Com_Port_SetConfiguration
    usb_prop.o(.data) refers to usb_prop.o(i.Virtual_Com_Port_SetDeviceAddress) for Virtual_Com_Port_SetDeviceAddress
    usb_pwr.o(i.PowerOff) refers to hw_config.o(i.USB_Cable_Config) for USB_Cable_Config
    usb_pwr.o(i.PowerOn) refers to hw_config.o(i.USB_Cable_Config) for USB_Cable_Config
    usb_pwr.o(i.PowerOn) refers to usb_init.o(.data) for wInterrupt_Mask
    usb_pwr.o(i.Resume) refers to usb_pwr.o(i.Resume_Init) for Resume_Init
    usb_pwr.o(i.Resume) refers to usb_pwr.o(.data) for .data
    usb_pwr.o(i.Resume_Init) refers to hw_config.o(i.Leave_LowPowerMode) for Leave_LowPowerMode
    usb_pwr.o(i.Suspend) refers to usb_pwr.o(.bss) for .bss
    usb_core.o(i.DataStageIn) refers to usb_regs.o(i.GetEPTxAddr) for GetEPTxAddr
    usb_core.o(i.DataStageIn) refers to usb_mem.o(i.UserToPMABufferCopy) for UserToPMABufferCopy
    usb_core.o(i.DataStageIn) refers to usb_regs.o(i.SetEPTxCount) for SetEPTxCount
    usb_core.o(i.DataStageIn) refers to usb_init.o(.data) for pInformation
    usb_core.o(i.DataStageIn) refers to usb_int.o(.data) for SaveTState
    usb_core.o(i.DataStageIn) refers to usb_core.o(.data) for .data
    usb_core.o(i.DataStageOut) refers to usb_regs.o(i.GetEPRxAddr) for GetEPRxAddr
    usb_core.o(i.DataStageOut) refers to usb_mem.o(i.PMAToUserBufferCopy) for PMAToUserBufferCopy
    usb_core.o(i.DataStageOut) refers to usb_regs.o(i.SetEPTxCount) for SetEPTxCount
    usb_core.o(i.DataStageOut) refers to usb_init.o(.data) for pInformation
    usb_core.o(i.DataStageOut) refers to usb_int.o(.data) for SaveTState
    usb_core.o(i.Data_Setup0) refers to usb_core.o(i.DataStageIn) for DataStageIn
    usb_core.o(i.Data_Setup0) refers to usb_init.o(.data) for pInformation
    usb_core.o(i.Data_Setup0) refers to usb_core.o(i.Standard_GetStatus) for Standard_GetStatus
    usb_core.o(i.Data_Setup0) refers to usb_prop.o(.data) for Device_Table
    usb_core.o(i.Data_Setup0) refers to usb_core.o(i.Standard_GetConfiguration) for Standard_GetConfiguration
    usb_core.o(i.Data_Setup0) refers to usb_core.o(i.Standard_GetInterface) for Standard_GetInterface
    usb_core.o(i.Data_Setup0) refers to usb_core.o(.data) for .data
    usb_core.o(i.Data_Setup0) refers to usb_int.o(.data) for SaveRState
    usb_core.o(i.In0_Process) refers to usb_core.o(i.DataStageIn) for DataStageIn
    usb_core.o(i.In0_Process) refers to usb_core.o(i.SetDeviceAddress) for SetDeviceAddress
    usb_core.o(i.In0_Process) refers to usb_core.o(i.Post0_Process) for Post0_Process
    usb_core.o(i.In0_Process) refers to usb_init.o(.data) for pInformation
    usb_core.o(i.NoData_Setup0) refers to usb_core.o(i.Standard_SetConfiguration) for Standard_SetConfiguration
    usb_core.o(i.NoData_Setup0) refers to usb_core.o(i.Standard_SetDeviceFeature) for Standard_SetDeviceFeature
    usb_core.o(i.NoData_Setup0) refers to usb_core.o(i.Standard_SetInterface) for Standard_SetInterface
    usb_core.o(i.NoData_Setup0) refers to usb_core.o(i.Standard_ClearFeature) for Standard_ClearFeature
    usb_core.o(i.NoData_Setup0) refers to usb_core.o(i.Standard_SetEndPointFeature) for Standard_SetEndPointFeature
    usb_core.o(i.NoData_Setup0) refers to usb_init.o(.data) for pInformation
    usb_core.o(i.NoData_Setup0) refers to usb_int.o(.data) for SaveTState
    usb_core.o(i.Out0_Process) refers to usb_core.o(i.DataStageOut) for DataStageOut
    usb_core.o(i.Out0_Process) refers to usb_core.o(i.Post0_Process) for Post0_Process
    usb_core.o(i.Out0_Process) refers to usb_init.o(.data) for pInformation
    usb_core.o(i.Post0_Process) refers to usb_regs.o(i.SetEPRxCount) for SetEPRxCount
    usb_core.o(i.Post0_Process) refers to usb_prop.o(.data) for Device_Property
    usb_core.o(i.Post0_Process) refers to usb_init.o(.data) for pInformation
    usb_core.o(i.Post0_Process) refers to usb_int.o(.data) for SaveRState
    usb_core.o(i.SetDeviceAddress) refers to usb_prop.o(.data) for Device_Table
    usb_core.o(i.Setup0_Process) refers to usb_regs.o(i.ByteSwap) for ByteSwap
    usb_core.o(i.Setup0_Process) refers to usb_core.o(i.Data_Setup0) for Data_Setup0
    usb_core.o(i.Setup0_Process) refers to usb_core.o(i.Post0_Process) for Post0_Process
    usb_core.o(i.Setup0_Process) refers to usb_core.o(i.NoData_Setup0) for NoData_Setup0
    usb_core.o(i.Setup0_Process) refers to usb_init.o(.data) for pInformation
    usb_core.o(i.Standard_ClearFeature) refers to usb_regs.o(i.ClearDTOG_TX) for ClearDTOG_TX
    usb_core.o(i.Standard_ClearFeature) refers to usb_regs.o(i.SetEPTxStatus) for SetEPTxStatus
    usb_core.o(i.Standard_ClearFeature) refers to usb_regs.o(i.ClearDTOG_RX) for ClearDTOG_RX
    usb_core.o(i.Standard_ClearFeature) refers to usb_regs.o(i.SetEPRxCount) for SetEPRxCount
    usb_core.o(i.Standard_ClearFeature) refers to usb_init.o(.data) for pInformation
    usb_core.o(i.Standard_ClearFeature) refers to usb_prop.o(.data) for Device_Table
    usb_core.o(i.Standard_ClearFeature) refers to usb_prop.o(.data) for Device_Property
    usb_core.o(i.Standard_GetConfiguration) refers to usb_init.o(.data) for pInformation
    usb_core.o(i.Standard_GetDescriptorData) refers to usb_init.o(.data) for pInformation
    usb_core.o(i.Standard_GetInterface) refers to usb_init.o(.data) for pInformation
    usb_core.o(i.Standard_GetStatus) refers to usb_init.o(.data) for pInformation
    usb_core.o(i.Standard_GetStatus) refers to usb_core.o(.data) for .data
    usb_core.o(i.Standard_SetConfiguration) refers to usb_init.o(.data) for pInformation
    usb_core.o(i.Standard_SetConfiguration) refers to usb_prop.o(.data) for Device_Table
    usb_core.o(i.Standard_SetDeviceFeature) refers to usb_init.o(.data) for pInformation
    usb_core.o(i.Standard_SetEndPointFeature) refers to usb_init.o(.data) for pInformation
    usb_core.o(i.Standard_SetEndPointFeature) refers to usb_prop.o(.data) for Device_Table
    usb_core.o(i.Standard_SetInterface) refers to usb_init.o(.data) for pInformation
    usb_init.o(i.USB_Init) refers to usb_init.o(.bss) for .bss
    usb_init.o(i.USB_Init) refers to usb_init.o(.data) for .data
    usb_init.o(i.USB_Init) refers to usb_prop.o(.data) for Device_Property
    usb_init.o(i.USB_Init) refers to usb_prop.o(.data) for User_Standard_Requests
    usb_int.o(i.CTR_HP) refers to usb_init.o(.data) for EPindex
    usb_int.o(i.CTR_HP) refers to usb_istr.o(.data) for wIstr
    usb_int.o(i.CTR_HP) refers to usb_istr.o(.data) for pEpInt_OUT
    usb_int.o(i.CTR_HP) refers to usb_istr.o(.data) for pEpInt_IN
    usb_int.o(i.CTR_LP) refers to usb_core.o(i.In0_Process) for In0_Process
    usb_int.o(i.CTR_LP) refers to usb_core.o(i.Setup0_Process) for Setup0_Process
    usb_int.o(i.CTR_LP) refers to usb_core.o(i.Out0_Process) for Out0_Process
    usb_int.o(i.CTR_LP) refers to usb_int.o(.data) for .data
    usb_int.o(i.CTR_LP) refers to usb_init.o(.data) for EPindex
    usb_int.o(i.CTR_LP) refers to usb_istr.o(.data) for pEpInt_OUT
    usb_int.o(i.CTR_LP) refers to usb_istr.o(.data) for pEpInt_IN
    usb_int.o(i.CTR_LP) refers to usb_istr.o(.data) for wIstr
    usb_queue.o(i.QUEUE_StructIn) refers to memcpya.o(.text) for __aeabi_memcpy
    usb_queue.o(i.QUEUE_StructOut) refers to memcpya.o(.text) for __aeabi_memcpy
    usb_regs.o(i.SetDouBleBuffEPStall) refers to usb_regs.o(i.GetENDPOINT) for GetENDPOINT
    usb_sil.o(i.USB_SIL_Init) refers to usb_init.o(.data) for wInterrupt_Mask
    usb_sil.o(i.USB_SIL_Read) refers to usb_regs.o(i.GetEPRxCount) for GetEPRxCount
    usb_sil.o(i.USB_SIL_Read) refers to usb_regs.o(i.GetEPRxAddr) for GetEPRxAddr
    usb_sil.o(i.USB_SIL_Read) refers to usb_mem.o(i.PMAToUserBufferCopy) for PMAToUserBufferCopy
    usb_sil.o(i.USB_SIL_Write) refers to usb_regs.o(i.GetEPTxAddr) for GetEPTxAddr
    usb_sil.o(i.USB_SIL_Write) refers to usb_mem.o(i.UserToPMABufferCopy) for UserToPMABufferCopy
    usb_sil.o(i.USB_SIL_Write) refers to usb_regs.o(i.SetEPTxCount) for SetEPTxCount
    port.o(.emb_text) refers to tasks.o(i.vTaskSwitchContext) for vTaskSwitchContext
    port.o(.emb_text) refers to tasks.o(.data) for pxCurrentTCB
    port.o(i.pxPortInitialiseStack) refers to port.o(i.prvTaskExitError) for prvTaskExitError
    port.o(i.vPortEnterCritical) refers to port.o(.data) for .data
    port.o(i.vPortExitCritical) refers to port.o(.data) for .data
    port.o(i.xPortStartScheduler) refers to port.o(i.vPortSetupTimerInterrupt) for vPortSetupTimerInterrupt
    port.o(i.xPortStartScheduler) refers to port.o(.emb_text) for __asm___6_port_c_39a90d8d__prvStartFirstTask
    port.o(i.xPortStartScheduler) refers to port.o(.data) for .data
    port.o(i.xPortSysTickHandler) refers to tasks.o(i.xTaskIncrementTick) for xTaskIncrementTick
    queue.o(i.prvCopyDataFromQueue) refers to memcpya.o(.text) for __aeabi_memcpy
    queue.o(i.prvCopyDataToQueue) refers to memcpya.o(.text) for __aeabi_memcpy
    queue.o(i.prvCopyDataToQueue) refers to tasks.o(i.xTaskPriorityDisinherit) for xTaskPriorityDisinherit
    queue.o(i.prvIsQueueEmpty) refers to port.o(i.vPortEnterCritical) for vPortEnterCritical
    queue.o(i.prvIsQueueEmpty) refers to port.o(i.vPortExitCritical) for vPortExitCritical
    queue.o(i.prvNotifyQueueSetContainer) refers to queue.o(i.prvCopyDataToQueue) for prvCopyDataToQueue
    queue.o(i.prvNotifyQueueSetContainer) refers to tasks.o(i.xTaskRemoveFromEventList) for xTaskRemoveFromEventList
    queue.o(i.prvUnlockQueue) refers to port.o(i.vPortEnterCritical) for vPortEnterCritical
    queue.o(i.prvUnlockQueue) refers to queue.o(i.prvNotifyQueueSetContainer) for prvNotifyQueueSetContainer
    queue.o(i.prvUnlockQueue) refers to tasks.o(i.xTaskRemoveFromEventList) for xTaskRemoveFromEventList
    queue.o(i.prvUnlockQueue) refers to tasks.o(i.vTaskMissedYield) for vTaskMissedYield
    queue.o(i.prvUnlockQueue) refers to port.o(i.vPortExitCritical) for vPortExitCritical
    queue.o(i.uxQueueMessagesWaiting) refers to port.o(i.vPortEnterCritical) for vPortEnterCritical
    queue.o(i.uxQueueMessagesWaiting) refers to port.o(i.vPortExitCritical) for vPortExitCritical
    queue.o(i.uxQueueSpacesAvailable) refers to port.o(i.vPortEnterCritical) for vPortEnterCritical
    queue.o(i.uxQueueSpacesAvailable) refers to port.o(i.vPortExitCritical) for vPortExitCritical
    queue.o(i.vQueueDelete) refers to heap_2.o(i.vPortFree) for vPortFree
    queue.o(i.xQueueAddToSet) refers to port.o(i.vPortEnterCritical) for vPortEnterCritical
    queue.o(i.xQueueAddToSet) refers to port.o(i.vPortExitCritical) for vPortExitCritical
    queue.o(i.xQueueCreateMutex) refers to queue.o(i.xQueueGenericCreate) for xQueueGenericCreate
    queue.o(i.xQueueCreateMutex) refers to queue.o(i.xQueueGenericSend) for xQueueGenericSend
    queue.o(i.xQueueCreateSet) refers to queue.o(i.xQueueGenericCreate) for xQueueGenericCreate
    queue.o(i.xQueueGenericCreate) refers to heap_2.o(i.pvPortMalloc) for pvPortMalloc
    queue.o(i.xQueueGenericCreate) refers to queue.o(i.xQueueGenericReset) for xQueueGenericReset
    queue.o(i.xQueueGenericReceive) refers to port.o(i.vPortEnterCritical) for vPortEnterCritical
    queue.o(i.xQueueGenericReceive) refers to queue.o(i.prvCopyDataFromQueue) for prvCopyDataFromQueue
    queue.o(i.xQueueGenericReceive) refers to tasks.o(i.xTaskRemoveFromEventList) for xTaskRemoveFromEventList
    queue.o(i.xQueueGenericReceive) refers to port.o(i.vPortExitCritical) for vPortExitCritical
    queue.o(i.xQueueGenericReceive) refers to tasks.o(i.pvTaskIncrementMutexHeldCount) for pvTaskIncrementMutexHeldCount
    queue.o(i.xQueueGenericReceive) refers to tasks.o(i.vTaskSetTimeOutState) for vTaskSetTimeOutState
    queue.o(i.xQueueGenericReceive) refers to tasks.o(i.vTaskSuspendAll) for vTaskSuspendAll
    queue.o(i.xQueueGenericReceive) refers to tasks.o(i.xTaskCheckForTimeOut) for xTaskCheckForTimeOut
    queue.o(i.xQueueGenericReceive) refers to queue.o(i.prvUnlockQueue) for prvUnlockQueue
    queue.o(i.xQueueGenericReceive) refers to tasks.o(i.xTaskResumeAll) for xTaskResumeAll
    queue.o(i.xQueueGenericReceive) refers to queue.o(i.prvIsQueueEmpty) for prvIsQueueEmpty
    queue.o(i.xQueueGenericReceive) refers to tasks.o(i.vTaskPriorityInherit) for vTaskPriorityInherit
    queue.o(i.xQueueGenericReceive) refers to tasks.o(i.vTaskPlaceOnEventList) for vTaskPlaceOnEventList
    queue.o(i.xQueueGenericReset) refers to port.o(i.vPortEnterCritical) for vPortEnterCritical
    queue.o(i.xQueueGenericReset) refers to list.o(i.vListInitialise) for vListInitialise
    queue.o(i.xQueueGenericReset) refers to port.o(i.vPortExitCritical) for vPortExitCritical
    queue.o(i.xQueueGenericReset) refers to tasks.o(i.xTaskRemoveFromEventList) for xTaskRemoveFromEventList
    queue.o(i.xQueueGenericSend) refers to port.o(i.vPortEnterCritical) for vPortEnterCritical
    queue.o(i.xQueueGenericSend) refers to queue.o(i.prvCopyDataToQueue) for prvCopyDataToQueue
    queue.o(i.xQueueGenericSend) refers to queue.o(i.prvNotifyQueueSetContainer) for prvNotifyQueueSetContainer
    queue.o(i.xQueueGenericSend) refers to tasks.o(i.xTaskRemoveFromEventList) for xTaskRemoveFromEventList
    queue.o(i.xQueueGenericSend) refers to port.o(i.vPortExitCritical) for vPortExitCritical
    queue.o(i.xQueueGenericSend) refers to tasks.o(i.vTaskSetTimeOutState) for vTaskSetTimeOutState
    queue.o(i.xQueueGenericSend) refers to tasks.o(i.vTaskSuspendAll) for vTaskSuspendAll
    queue.o(i.xQueueGenericSend) refers to tasks.o(i.xTaskCheckForTimeOut) for xTaskCheckForTimeOut
    queue.o(i.xQueueGenericSend) refers to queue.o(i.prvUnlockQueue) for prvUnlockQueue
    queue.o(i.xQueueGenericSend) refers to tasks.o(i.xTaskResumeAll) for xTaskResumeAll
    queue.o(i.xQueueGenericSend) refers to tasks.o(i.vTaskPlaceOnEventList) for vTaskPlaceOnEventList
    queue.o(i.xQueueGenericSendFromISR) refers to queue.o(i.prvCopyDataToQueue) for prvCopyDataToQueue
    queue.o(i.xQueueGenericSendFromISR) refers to queue.o(i.prvNotifyQueueSetContainer) for prvNotifyQueueSetContainer
    queue.o(i.xQueueGenericSendFromISR) refers to tasks.o(i.xTaskRemoveFromEventList) for xTaskRemoveFromEventList
    queue.o(i.xQueueGiveFromISR) refers to queue.o(i.prvNotifyQueueSetContainer) for prvNotifyQueueSetContainer
    queue.o(i.xQueueGiveFromISR) refers to tasks.o(i.xTaskRemoveFromEventList) for xTaskRemoveFromEventList
    queue.o(i.xQueueGiveMutexRecursive) refers to tasks.o(i.xTaskGetCurrentTaskHandle) for xTaskGetCurrentTaskHandle
    queue.o(i.xQueueGiveMutexRecursive) refers to queue.o(i.xQueueGenericSend) for xQueueGenericSend
    queue.o(i.xQueuePeekFromISR) refers to queue.o(i.prvCopyDataFromQueue) for prvCopyDataFromQueue
    queue.o(i.xQueueReceiveFromISR) refers to queue.o(i.prvCopyDataFromQueue) for prvCopyDataFromQueue
    queue.o(i.xQueueReceiveFromISR) refers to tasks.o(i.xTaskRemoveFromEventList) for xTaskRemoveFromEventList
    queue.o(i.xQueueRemoveFromSet) refers to port.o(i.vPortEnterCritical) for vPortEnterCritical
    queue.o(i.xQueueRemoveFromSet) refers to port.o(i.vPortExitCritical) for vPortExitCritical
    queue.o(i.xQueueSelectFromSet) refers to queue.o(i.xQueueGenericReceive) for xQueueGenericReceive
    queue.o(i.xQueueSelectFromSetFromISR) refers to queue.o(i.xQueueReceiveFromISR) for xQueueReceiveFromISR
    queue.o(i.xQueueTakeMutexRecursive) refers to tasks.o(i.xTaskGetCurrentTaskHandle) for xTaskGetCurrentTaskHandle
    queue.o(i.xQueueTakeMutexRecursive) refers to queue.o(i.xQueueGenericReceive) for xQueueGenericReceive
    tasks.o(i.pcTaskGetName) refers to tasks.o(.data) for .data
    tasks.o(i.prvAddCurrentTaskToDelayedList) refers to list.o(i.uxListRemove) for uxListRemove
    tasks.o(i.prvAddCurrentTaskToDelayedList) refers to list.o(i.vListInsertEnd) for vListInsertEnd
    tasks.o(i.prvAddCurrentTaskToDelayedList) refers to list.o(i.vListInsert) for vListInsert
    tasks.o(i.prvAddCurrentTaskToDelayedList) refers to tasks.o(.data) for .data
    tasks.o(i.prvAddCurrentTaskToDelayedList) refers to tasks.o(.bss) for .bss
    tasks.o(i.prvAddNewTaskToReadyList) refers to port.o(i.vPortEnterCritical) for vPortEnterCritical
    tasks.o(i.prvAddNewTaskToReadyList) refers to list.o(i.vListInitialise) for vListInitialise
    tasks.o(i.prvAddNewTaskToReadyList) refers to list.o(i.vListInsertEnd) for vListInsertEnd
    tasks.o(i.prvAddNewTaskToReadyList) refers to port.o(i.vPortExitCritical) for vPortExitCritical
    tasks.o(i.prvAddNewTaskToReadyList) refers to tasks.o(.data) for .data
    tasks.o(i.prvAddNewTaskToReadyList) refers to tasks.o(.bss) for .bss
    tasks.o(i.prvCheckTasksWaitingTermination) refers to tasks.o(i.vTaskSuspendAll) for vTaskSuspendAll
    tasks.o(i.prvCheckTasksWaitingTermination) refers to tasks.o(i.xTaskResumeAll) for xTaskResumeAll
    tasks.o(i.prvCheckTasksWaitingTermination) refers to port.o(i.vPortEnterCritical) for vPortEnterCritical
    tasks.o(i.prvCheckTasksWaitingTermination) refers to list.o(i.uxListRemove) for uxListRemove
    tasks.o(i.prvCheckTasksWaitingTermination) refers to port.o(i.vPortExitCritical) for vPortExitCritical
    tasks.o(i.prvCheckTasksWaitingTermination) refers to tasks.o(i.prvDeleteTCB) for prvDeleteTCB
    tasks.o(i.prvCheckTasksWaitingTermination) refers to tasks.o(.bss) for .bss
    tasks.o(i.prvCheckTasksWaitingTermination) refers to tasks.o(.data) for .data
    tasks.o(i.prvDeleteTCB) refers to heap_2.o(i.vPortFree) for vPortFree
    tasks.o(i.prvIdleTask) refers to tasks.o(i.prvCheckTasksWaitingTermination) for prvCheckTasksWaitingTermination
    tasks.o(i.prvIdleTask) refers to tasks.o(.bss) for .bss
    tasks.o(i.prvInitialiseNewTask) refers to list.o(i.vListInitialiseItem) for vListInitialiseItem
    tasks.o(i.prvInitialiseNewTask) refers to port.o(i.pxPortInitialiseStack) for pxPortInitialiseStack
    tasks.o(i.prvResetNextTaskUnblockTime) refers to tasks.o(.data) for .data
    tasks.o(i.prvTaskIsTaskSuspended) refers to tasks.o(.bss) for .bss
    tasks.o(i.pvTaskIncrementMutexHeldCount) refers to tasks.o(.data) for .data
    tasks.o(i.ulTaskNotifyTake) refers to port.o(i.vPortEnterCritical) for vPortEnterCritical
    tasks.o(i.ulTaskNotifyTake) refers to tasks.o(i.prvAddCurrentTaskToDelayedList) for prvAddCurrentTaskToDelayedList
    tasks.o(i.ulTaskNotifyTake) refers to port.o(i.vPortExitCritical) for vPortExitCritical
    tasks.o(i.ulTaskNotifyTake) refers to tasks.o(.data) for .data
    tasks.o(i.uxTaskGetNumberOfTasks) refers to tasks.o(.data) for .data
    tasks.o(i.uxTaskPriorityGet) refers to port.o(i.vPortEnterCritical) for vPortEnterCritical
    tasks.o(i.uxTaskPriorityGet) refers to port.o(i.vPortExitCritical) for vPortExitCritical
    tasks.o(i.uxTaskPriorityGet) refers to tasks.o(.data) for .data
    tasks.o(i.uxTaskPriorityGetFromISR) refers to tasks.o(.data) for .data
    tasks.o(i.uxTaskResetEventItemValue) refers to tasks.o(.data) for .data
    tasks.o(i.vTaskDelay) refers to tasks.o(i.vTaskSuspendAll) for vTaskSuspendAll
    tasks.o(i.vTaskDelay) refers to tasks.o(i.prvAddCurrentTaskToDelayedList) for prvAddCurrentTaskToDelayedList
    tasks.o(i.vTaskDelay) refers to tasks.o(i.xTaskResumeAll) for xTaskResumeAll
    tasks.o(i.vTaskDelayUntil) refers to tasks.o(i.vTaskSuspendAll) for vTaskSuspendAll
    tasks.o(i.vTaskDelayUntil) refers to tasks.o(i.prvAddCurrentTaskToDelayedList) for prvAddCurrentTaskToDelayedList
    tasks.o(i.vTaskDelayUntil) refers to tasks.o(i.xTaskResumeAll) for xTaskResumeAll
    tasks.o(i.vTaskDelayUntil) refers to tasks.o(.data) for .data
    tasks.o(i.vTaskDelete) refers to port.o(i.vPortEnterCritical) for vPortEnterCritical
    tasks.o(i.vTaskDelete) refers to list.o(i.uxListRemove) for uxListRemove
    tasks.o(i.vTaskDelete) refers to list.o(i.vListInsertEnd) for vListInsertEnd
    tasks.o(i.vTaskDelete) refers to tasks.o(i.prvDeleteTCB) for prvDeleteTCB
    tasks.o(i.vTaskDelete) refers to tasks.o(i.prvResetNextTaskUnblockTime) for prvResetNextTaskUnblockTime
    tasks.o(i.vTaskDelete) refers to port.o(i.vPortExitCritical) for vPortExitCritical
    tasks.o(i.vTaskDelete) refers to tasks.o(.data) for .data
    tasks.o(i.vTaskDelete) refers to tasks.o(.bss) for .bss
    tasks.o(i.vTaskEndScheduler) refers to port.o(i.vPortEndScheduler) for vPortEndScheduler
    tasks.o(i.vTaskEndScheduler) refers to tasks.o(.data) for .data
    tasks.o(i.vTaskMissedYield) refers to tasks.o(.data) for .data
    tasks.o(i.vTaskNotifyGiveFromISR) refers to list.o(i.vListInsertEnd) for vListInsertEnd
    tasks.o(i.vTaskNotifyGiveFromISR) refers to list.o(i.uxListRemove) for uxListRemove
    tasks.o(i.vTaskNotifyGiveFromISR) refers to tasks.o(.data) for .data
    tasks.o(i.vTaskNotifyGiveFromISR) refers to tasks.o(.bss) for .bss
    tasks.o(i.vTaskPlaceOnEventList) refers to list.o(i.vListInsert) for vListInsert
    tasks.o(i.vTaskPlaceOnEventList) refers to tasks.o(i.prvAddCurrentTaskToDelayedList) for prvAddCurrentTaskToDelayedList
    tasks.o(i.vTaskPlaceOnEventList) refers to tasks.o(.data) for .data
    tasks.o(i.vTaskPlaceOnUnorderedEventList) refers to list.o(i.vListInsertEnd) for vListInsertEnd
    tasks.o(i.vTaskPlaceOnUnorderedEventList) refers to tasks.o(i.prvAddCurrentTaskToDelayedList) for prvAddCurrentTaskToDelayedList
    tasks.o(i.vTaskPlaceOnUnorderedEventList) refers to tasks.o(.data) for .data
    tasks.o(i.vTaskPriorityInherit) refers to list.o(i.uxListRemove) for uxListRemove
    tasks.o(i.vTaskPriorityInherit) refers to list.o(i.vListInsertEnd) for vListInsertEnd
    tasks.o(i.vTaskPriorityInherit) refers to tasks.o(.data) for .data
    tasks.o(i.vTaskPriorityInherit) refers to tasks.o(.bss) for .bss
    tasks.o(i.vTaskPrioritySet) refers to port.o(i.vPortEnterCritical) for vPortEnterCritical
    tasks.o(i.vTaskPrioritySet) refers to list.o(i.uxListRemove) for uxListRemove
    tasks.o(i.vTaskPrioritySet) refers to list.o(i.vListInsertEnd) for vListInsertEnd
    tasks.o(i.vTaskPrioritySet) refers to port.o(i.vPortExitCritical) for vPortExitCritical
    tasks.o(i.vTaskPrioritySet) refers to tasks.o(.data) for .data
    tasks.o(i.vTaskPrioritySet) refers to tasks.o(.bss) for .bss
    tasks.o(i.vTaskResume) refers to port.o(i.vPortEnterCritical) for vPortEnterCritical
    tasks.o(i.vTaskResume) refers to tasks.o(i.prvTaskIsTaskSuspended) for prvTaskIsTaskSuspended
    tasks.o(i.vTaskResume) refers to list.o(i.uxListRemove) for uxListRemove
    tasks.o(i.vTaskResume) refers to list.o(i.vListInsertEnd) for vListInsertEnd
    tasks.o(i.vTaskResume) refers to port.o(i.vPortExitCritical) for vPortExitCritical
    tasks.o(i.vTaskResume) refers to tasks.o(.data) for .data
    tasks.o(i.vTaskResume) refers to tasks.o(.bss) for .bss
    tasks.o(i.vTaskSetTimeOutState) refers to tasks.o(.data) for .data
    tasks.o(i.vTaskStartScheduler) refers to tasks.o(i.xTaskCreate) for xTaskCreate
    tasks.o(i.vTaskStartScheduler) refers to port.o(i.xPortStartScheduler) for xPortStartScheduler
    tasks.o(i.vTaskStartScheduler) refers to tasks.o(.data) for .data
    tasks.o(i.vTaskStartScheduler) refers to tasks.o(i.prvIdleTask) for prvIdleTask
    tasks.o(i.vTaskSuspend) refers to port.o(i.vPortEnterCritical) for vPortEnterCritical
    tasks.o(i.vTaskSuspend) refers to list.o(i.uxListRemove) for uxListRemove
    tasks.o(i.vTaskSuspend) refers to list.o(i.vListInsertEnd) for vListInsertEnd
    tasks.o(i.vTaskSuspend) refers to port.o(i.vPortExitCritical) for vPortExitCritical
    tasks.o(i.vTaskSuspend) refers to tasks.o(i.prvResetNextTaskUnblockTime) for prvResetNextTaskUnblockTime
    tasks.o(i.vTaskSuspend) refers to tasks.o(i.vTaskSwitchContext) for vTaskSwitchContext
    tasks.o(i.vTaskSuspend) refers to tasks.o(.data) for .data
    tasks.o(i.vTaskSuspend) refers to tasks.o(.bss) for .bss
    tasks.o(i.vTaskSuspendAll) refers to tasks.o(.data) for .data
    tasks.o(i.vTaskSwitchContext) refers to tasks.o(.data) for .data
    tasks.o(i.vTaskSwitchContext) refers to tasks.o(.bss) for .bss
    tasks.o(i.xTaskCheckForTimeOut) refers to port.o(i.vPortEnterCritical) for vPortEnterCritical
    tasks.o(i.xTaskCheckForTimeOut) refers to tasks.o(i.vTaskSetTimeOutState) for vTaskSetTimeOutState
    tasks.o(i.xTaskCheckForTimeOut) refers to port.o(i.vPortExitCritical) for vPortExitCritical
    tasks.o(i.xTaskCheckForTimeOut) refers to tasks.o(.data) for .data
    tasks.o(i.xTaskCreate) refers to heap_2.o(i.pvPortMalloc) for pvPortMalloc
    tasks.o(i.xTaskCreate) refers to tasks.o(i.prvInitialiseNewTask) for prvInitialiseNewTask
    tasks.o(i.xTaskCreate) refers to tasks.o(i.prvAddNewTaskToReadyList) for prvAddNewTaskToReadyList
    tasks.o(i.xTaskCreate) refers to heap_2.o(i.vPortFree) for vPortFree
    tasks.o(i.xTaskGenericNotify) refers to port.o(i.vPortEnterCritical) for vPortEnterCritical
    tasks.o(i.xTaskGenericNotify) refers to list.o(i.uxListRemove) for uxListRemove
    tasks.o(i.xTaskGenericNotify) refers to list.o(i.vListInsertEnd) for vListInsertEnd
    tasks.o(i.xTaskGenericNotify) refers to port.o(i.vPortExitCritical) for vPortExitCritical
    tasks.o(i.xTaskGenericNotify) refers to tasks.o(.data) for .data
    tasks.o(i.xTaskGenericNotify) refers to tasks.o(.bss) for .bss
    tasks.o(i.xTaskGenericNotifyFromISR) refers to list.o(i.vListInsertEnd) for vListInsertEnd
    tasks.o(i.xTaskGenericNotifyFromISR) refers to list.o(i.uxListRemove) for uxListRemove
    tasks.o(i.xTaskGenericNotifyFromISR) refers to tasks.o(.data) for .data
    tasks.o(i.xTaskGenericNotifyFromISR) refers to tasks.o(.bss) for .bss
    tasks.o(i.xTaskGetCurrentTaskHandle) refers to tasks.o(.data) for .data
    tasks.o(i.xTaskGetTickCount) refers to tasks.o(.data) for .data
    tasks.o(i.xTaskGetTickCountFromISR) refers to tasks.o(.data) for .data
    tasks.o(i.xTaskIncrementTick) refers to tasks.o(i.prvResetNextTaskUnblockTime) for prvResetNextTaskUnblockTime
    tasks.o(i.xTaskIncrementTick) refers to list.o(i.uxListRemove) for uxListRemove
    tasks.o(i.xTaskIncrementTick) refers to list.o(i.vListInsertEnd) for vListInsertEnd
    tasks.o(i.xTaskIncrementTick) refers to tasks.o(.data) for .data
    tasks.o(i.xTaskIncrementTick) refers to tasks.o(.bss) for .bss
    tasks.o(i.xTaskNotifyStateClear) refers to port.o(i.vPortEnterCritical) for vPortEnterCritical
    tasks.o(i.xTaskNotifyStateClear) refers to port.o(i.vPortExitCritical) for vPortExitCritical
    tasks.o(i.xTaskNotifyStateClear) refers to tasks.o(.data) for .data
    tasks.o(i.xTaskNotifyWait) refers to port.o(i.vPortEnterCritical) for vPortEnterCritical
    tasks.o(i.xTaskNotifyWait) refers to tasks.o(i.prvAddCurrentTaskToDelayedList) for prvAddCurrentTaskToDelayedList
    tasks.o(i.xTaskNotifyWait) refers to port.o(i.vPortExitCritical) for vPortExitCritical
    tasks.o(i.xTaskNotifyWait) refers to tasks.o(.data) for .data
    tasks.o(i.xTaskPriorityDisinherit) refers to list.o(i.uxListRemove) for uxListRemove
    tasks.o(i.xTaskPriorityDisinherit) refers to list.o(i.vListInsertEnd) for vListInsertEnd
    tasks.o(i.xTaskPriorityDisinherit) refers to tasks.o(.bss) for .bss
    tasks.o(i.xTaskPriorityDisinherit) refers to tasks.o(.data) for .data
    tasks.o(i.xTaskRemoveFromEventList) refers to list.o(i.uxListRemove) for uxListRemove
    tasks.o(i.xTaskRemoveFromEventList) refers to list.o(i.vListInsertEnd) for vListInsertEnd
    tasks.o(i.xTaskRemoveFromEventList) refers to tasks.o(.data) for .data
    tasks.o(i.xTaskRemoveFromEventList) refers to tasks.o(.bss) for .bss
    tasks.o(i.xTaskRemoveFromUnorderedEventList) refers to list.o(i.uxListRemove) for uxListRemove
    tasks.o(i.xTaskRemoveFromUnorderedEventList) refers to list.o(i.vListInsertEnd) for vListInsertEnd
    tasks.o(i.xTaskRemoveFromUnorderedEventList) refers to tasks.o(.data) for .data
    tasks.o(i.xTaskRemoveFromUnorderedEventList) refers to tasks.o(.bss) for .bss
    tasks.o(i.xTaskResumeAll) refers to port.o(i.vPortEnterCritical) for vPortEnterCritical
    tasks.o(i.xTaskResumeAll) refers to list.o(i.uxListRemove) for uxListRemove
    tasks.o(i.xTaskResumeAll) refers to list.o(i.vListInsertEnd) for vListInsertEnd
    tasks.o(i.xTaskResumeAll) refers to tasks.o(i.prvResetNextTaskUnblockTime) for prvResetNextTaskUnblockTime
    tasks.o(i.xTaskResumeAll) refers to tasks.o(i.xTaskIncrementTick) for xTaskIncrementTick
    tasks.o(i.xTaskResumeAll) refers to port.o(i.vPortExitCritical) for vPortExitCritical
    tasks.o(i.xTaskResumeAll) refers to tasks.o(.data) for .data
    tasks.o(i.xTaskResumeAll) refers to tasks.o(.bss) for .bss
    tasks.o(i.xTaskResumeFromISR) refers to tasks.o(i.prvTaskIsTaskSuspended) for prvTaskIsTaskSuspended
    tasks.o(i.xTaskResumeFromISR) refers to list.o(i.uxListRemove) for uxListRemove
    tasks.o(i.xTaskResumeFromISR) refers to list.o(i.vListInsertEnd) for vListInsertEnd
    tasks.o(i.xTaskResumeFromISR) refers to tasks.o(.data) for .data
    tasks.o(i.xTaskResumeFromISR) refers to tasks.o(.bss) for .bss
    heap_2.o(i.pvPortMalloc) refers to tasks.o(i.vTaskSuspendAll) for vTaskSuspendAll
    heap_2.o(i.pvPortMalloc) refers to tasks.o(i.xTaskResumeAll) for xTaskResumeAll
    heap_2.o(i.pvPortMalloc) refers to heap_2.o(.data) for .data
    heap_2.o(i.pvPortMalloc) refers to heap_2.o(.bss) for .bss
    heap_2.o(i.vPortFree) refers to tasks.o(i.vTaskSuspendAll) for vTaskSuspendAll
    heap_2.o(i.vPortFree) refers to tasks.o(i.xTaskResumeAll) for xTaskResumeAll
    heap_2.o(i.vPortFree) refers to heap_2.o(.data) for .data
    heap_2.o(i.xPortGetFreeHeapSize) refers to heap_2.o(.data) for .data
    event_groups.o(i.vEventGroupClearBitsCallback) refers to event_groups.o(i.xEventGroupClearBits) for xEventGroupClearBits
    event_groups.o(i.vEventGroupDelete) refers to tasks.o(i.vTaskSuspendAll) for vTaskSuspendAll
    event_groups.o(i.vEventGroupDelete) refers to tasks.o(i.xTaskRemoveFromUnorderedEventList) for xTaskRemoveFromUnorderedEventList
    event_groups.o(i.vEventGroupDelete) refers to heap_2.o(i.vPortFree) for vPortFree
    event_groups.o(i.vEventGroupDelete) refers to tasks.o(i.xTaskResumeAll) for xTaskResumeAll
    event_groups.o(i.vEventGroupSetBitsCallback) refers to event_groups.o(i.xEventGroupSetBits) for xEventGroupSetBits
    event_groups.o(i.xEventGroupClearBits) refers to port.o(i.vPortEnterCritical) for vPortEnterCritical
    event_groups.o(i.xEventGroupClearBits) refers to port.o(i.vPortExitCritical) for vPortExitCritical
    event_groups.o(i.xEventGroupCreate) refers to heap_2.o(i.pvPortMalloc) for pvPortMalloc
    event_groups.o(i.xEventGroupCreate) refers to list.o(i.vListInitialise) for vListInitialise
    event_groups.o(i.xEventGroupSetBits) refers to tasks.o(i.vTaskSuspendAll) for vTaskSuspendAll
    event_groups.o(i.xEventGroupSetBits) refers to tasks.o(i.xTaskRemoveFromUnorderedEventList) for xTaskRemoveFromUnorderedEventList
    event_groups.o(i.xEventGroupSetBits) refers to tasks.o(i.xTaskResumeAll) for xTaskResumeAll
    event_groups.o(i.xEventGroupSync) refers to tasks.o(i.vTaskSuspendAll) for vTaskSuspendAll
    event_groups.o(i.xEventGroupSync) refers to event_groups.o(i.xEventGroupSetBits) for xEventGroupSetBits
    event_groups.o(i.xEventGroupSync) refers to tasks.o(i.vTaskPlaceOnUnorderedEventList) for vTaskPlaceOnUnorderedEventList
    event_groups.o(i.xEventGroupSync) refers to tasks.o(i.xTaskResumeAll) for xTaskResumeAll
    event_groups.o(i.xEventGroupSync) refers to tasks.o(i.uxTaskResetEventItemValue) for uxTaskResetEventItemValue
    event_groups.o(i.xEventGroupSync) refers to port.o(i.vPortEnterCritical) for vPortEnterCritical
    event_groups.o(i.xEventGroupSync) refers to port.o(i.vPortExitCritical) for vPortExitCritical
    event_groups.o(i.xEventGroupWaitBits) refers to tasks.o(i.vTaskSuspendAll) for vTaskSuspendAll
    event_groups.o(i.xEventGroupWaitBits) refers to event_groups.o(i.prvTestWaitCondition) for prvTestWaitCondition
    event_groups.o(i.xEventGroupWaitBits) refers to tasks.o(i.vTaskPlaceOnUnorderedEventList) for vTaskPlaceOnUnorderedEventList
    event_groups.o(i.xEventGroupWaitBits) refers to tasks.o(i.xTaskResumeAll) for xTaskResumeAll
    event_groups.o(i.xEventGroupWaitBits) refers to tasks.o(i.uxTaskResetEventItemValue) for uxTaskResetEventItemValue
    event_groups.o(i.xEventGroupWaitBits) refers to port.o(i.vPortEnterCritical) for vPortEnterCritical
    event_groups.o(i.xEventGroupWaitBits) refers to port.o(i.vPortExitCritical) for vPortExitCritical
    asinf.o(i.__softfp_asinf) refers (Special) to iusefp.o(.text) for __I$use$fp
    asinf.o(i.__softfp_asinf) refers to asinf.o(i.asinf) for asinf
    asinf.o(i.asinf) refers (Special) to iusefp.o(.text) for __I$use$fp
    asinf.o(i.asinf) refers to fadd.o(.text) for __aeabi_frsub
    asinf.o(i.asinf) refers to fscalb.o(.text) for __ARM_scalbnf
    asinf.o(i.asinf) refers to sqrtf.o(i.sqrtf) for sqrtf
    asinf.o(i.asinf) refers to fmul.o(.text) for __aeabi_fmul
    asinf.o(i.asinf) refers to fpclassifyf.o(i.__ARM_fpclassifyf) for __ARM_fpclassifyf
    asinf.o(i.asinf) refers to funder.o(i.__mathlib_flt_underflow) for __mathlib_flt_underflow
    asinf.o(i.asinf) refers to funder.o(i.__mathlib_flt_infnan) for __mathlib_flt_infnan
    asinf.o(i.asinf) refers to errno.o(i.__set_errno) for __set_errno
    asinf.o(i.asinf) refers to funder.o(i.__mathlib_flt_invalid) for __mathlib_flt_invalid
    asinf_x.o(i.____softfp_asinf$lsc) refers (Special) to iusefp.o(.text) for __I$use$fp
    asinf_x.o(i.____softfp_asinf$lsc) refers to asinf_x.o(i.__asinf$lsc) for __asinf$lsc
    asinf_x.o(i.__asinf$lsc) refers (Special) to iusefp.o(.text) for __I$use$fp
    asinf_x.o(i.__asinf$lsc) refers to fadd.o(.text) for __aeabi_frsub
    asinf_x.o(i.__asinf$lsc) refers to fscalb.o(.text) for __ARM_scalbnf
    asinf_x.o(i.__asinf$lsc) refers to sqrtf.o(i.sqrtf) for sqrtf
    asinf_x.o(i.__asinf$lsc) refers to fmul.o(.text) for __aeabi_fmul
    asinf_x.o(i.__asinf$lsc) refers to funder.o(i.__mathlib_flt_infnan) for __mathlib_flt_infnan
    asinf_x.o(i.__asinf$lsc) refers to errno.o(i.__set_errno) for __set_errno
    atan2f.o(i.__softfp_atan2f) refers (Special) to iusefp.o(.text) for __I$use$fp
    atan2f.o(i.__softfp_atan2f) refers to atan2f.o(i.atan2f) for atan2f
    atan2f.o(i.atan2f) refers (Special) to iusefp.o(.text) for __I$use$fp
    atan2f.o(i.atan2f) refers to fdiv.o(.text) for __aeabi_fdiv
    atan2f.o(i.atan2f) refers to fpclassifyf.o(i.__ARM_fpclassifyf) for __ARM_fpclassifyf
    atan2f.o(i.atan2f) refers to funder.o(i.__mathlib_flt_underflow) for __mathlib_flt_underflow
    atan2f.o(i.atan2f) refers to fadd.o(.text) for __aeabi_fsub
    atan2f.o(i.atan2f) refers to fmul.o(.text) for __aeabi_fmul
    atan2f.o(i.atan2f) refers to funder.o(i.__mathlib_flt_infnan2) for __mathlib_flt_infnan2
    atan2f_x.o(i.____softfp_atan2f$lsc) refers (Special) to iusefp.o(.text) for __I$use$fp
    atan2f_x.o(i.____softfp_atan2f$lsc) refers to atan2f_x.o(i.__atan2f$lsc) for __atan2f$lsc
    atan2f_x.o(i.__atan2f$lsc) refers (Special) to iusefp.o(.text) for __I$use$fp
    atan2f_x.o(i.__atan2f$lsc) refers to fdiv.o(.text) for __aeabi_fdiv
    atan2f_x.o(i.__atan2f$lsc) refers to fadd.o(.text) for __aeabi_fsub
    atan2f_x.o(i.__atan2f$lsc) refers to fmul.o(.text) for __aeabi_fmul
    atan2f_x.o(i.__atan2f$lsc) refers to funder.o(i.__mathlib_flt_infnan2) for __mathlib_flt_infnan2
    atan2f_x.o(i.__atan2f$lsc) refers to errno.o(i.__set_errno) for __set_errno
    cosf.o(i.__softfp_cosf) refers (Special) to iusefp.o(.text) for __I$use$fp
    cosf.o(i.__softfp_cosf) refers to cosf.o(i.cosf) for cosf
    cosf.o(i.cosf) refers (Special) to iusefp.o(.text) for __I$use$fp
    cosf.o(i.cosf) refers to fmul.o(.text) for __aeabi_fmul
    cosf.o(i.cosf) refers to frnd.o(.text) for _frnd
    cosf.o(i.cosf) refers to ffixi.o(.text) for __aeabi_f2iz
    cosf.o(i.cosf) refers to fadd.o(.text) for __aeabi_frsub
    cosf.o(i.cosf) refers to rredf.o(i.__mathlib_rredf2) for __mathlib_rredf2
    cosf.o(i.cosf) refers to errno.o(i.__set_errno) for __set_errno
    cosf.o(i.cosf) refers to funder.o(i.__mathlib_flt_invalid) for __mathlib_flt_invalid
    cosf.o(i.cosf) refers to funder.o(i.__mathlib_flt_infnan) for __mathlib_flt_infnan
    cosf_x.o(i.____softfp_cosf$lsc) refers (Special) to iusefp.o(.text) for __I$use$fp
    cosf_x.o(i.____softfp_cosf$lsc) refers to cosf_x.o(i.__cosf$lsc) for __cosf$lsc
    cosf_x.o(i.__cosf$lsc) refers (Special) to iusefp.o(.text) for __I$use$fp
    cosf_x.o(i.__cosf$lsc) refers to fmul.o(.text) for __aeabi_fmul
    cosf_x.o(i.__cosf$lsc) refers to frnd.o(.text) for _frnd
    cosf_x.o(i.__cosf$lsc) refers to ffixi.o(.text) for __aeabi_f2iz
    cosf_x.o(i.__cosf$lsc) refers to fadd.o(.text) for __aeabi_frsub
    cosf_x.o(i.__cosf$lsc) refers to rredf.o(i.__mathlib_rredf2) for __mathlib_rredf2
    cosf_x.o(i.__cosf$lsc) refers to errno.o(i.__set_errno) for __set_errno
    cosf_x.o(i.__cosf$lsc) refers to funder.o(i.__mathlib_flt_infnan) for __mathlib_flt_infnan
    pow.o(i.__softfp_pow) refers (Special) to iusefp.o(.text) for __I$use$fp
    pow.o(i.__softfp_pow) refers to pow.o(i.pow) for pow
    pow.o(i.pow) refers (Special) to iusefp.o(.text) for __I$use$fp
    pow.o(i.pow) refers to dunder.o(i.__mathlib_dbl_infnan2) for __mathlib_dbl_infnan2
    pow.o(i.pow) refers to errno.o(i.__set_errno) for __set_errno
    pow.o(i.pow) refers to dunder.o(i.__mathlib_dbl_divzero) for __mathlib_dbl_divzero
    pow.o(i.pow) refers to ddiv.o(.text) for __aeabi_ddiv
    pow.o(i.pow) refers to sqrt.o(i.sqrt) for sqrt
    pow.o(i.pow) refers to dmul.o(.text) for __aeabi_dmul
    pow.o(i.pow) refers to dflti.o(.text) for __aeabi_i2d
    pow.o(i.pow) refers to dunder.o(i.__mathlib_dbl_invalid) for __mathlib_dbl_invalid
    pow.o(i.pow) refers to dunder.o(i.__mathlib_dbl_overflow) for __mathlib_dbl_overflow
    pow.o(i.pow) refers to dunder.o(i.__mathlib_dbl_underflow) for __mathlib_dbl_underflow
    pow.o(i.pow) refers to dadd.o(.text) for __aeabi_dsub
    pow.o(i.pow) refers to dscalb.o(.text) for __ARM_scalbn
    pow.o(i.pow) refers to qnan.o(.constdata) for __mathlib_zero
    pow.o(i.pow) refers to poly.o(i.__kernel_poly) for __kernel_poly
    pow.o(i.pow) refers to cdrcmple.o(.text) for __aeabi_cdrcmple
    pow.o(i.pow) refers to pow.o(.constdata) for .constdata
    pow.o(i.pow) refers to fpclassify.o(i.__ARM_fpclassify) for __ARM_fpclassify
    pow.o(.constdata) refers (Special) to iusefp.o(.text) for __I$use$fp
    pow_x.o(i.____softfp_pow$lsc) refers (Special) to iusefp.o(.text) for __I$use$fp
    pow_x.o(i.____softfp_pow$lsc) refers to pow_x.o(i.__pow$lsc) for __pow$lsc
    pow_x.o(i.__pow$lsc) refers (Special) to iusefp.o(.text) for __I$use$fp
    pow_x.o(i.__pow$lsc) refers to dunder.o(i.__mathlib_dbl_infnan2) for __mathlib_dbl_infnan2
    pow_x.o(i.__pow$lsc) refers to errno.o(i.__set_errno) for __set_errno
    pow_x.o(i.__pow$lsc) refers to ddiv.o(.text) for __aeabi_ddiv
    pow_x.o(i.__pow$lsc) refers to sqrt.o(i.sqrt) for sqrt
    pow_x.o(i.__pow$lsc) refers to dmul.o(.text) for __aeabi_dmul
    pow_x.o(i.__pow$lsc) refers to dflti.o(.text) for __aeabi_i2d
    pow_x.o(i.__pow$lsc) refers to dadd.o(.text) for __aeabi_dsub
    pow_x.o(i.__pow$lsc) refers to dscalb.o(.text) for __ARM_scalbn
    pow_x.o(i.__pow$lsc) refers to qnan.o(.constdata) for __mathlib_zero
    pow_x.o(i.__pow$lsc) refers to poly.o(i.__kernel_poly) for __kernel_poly
    pow_x.o(i.__pow$lsc) refers to cdrcmple.o(.text) for __aeabi_cdrcmple
    pow_x.o(i.__pow$lsc) refers to pow_x.o(.constdata) for .constdata
    pow_x.o(.constdata) refers (Special) to iusefp.o(.text) for __I$use$fp
    sinf.o(i.__softfp_sinf) refers (Special) to iusefp.o(.text) for __I$use$fp
    sinf.o(i.__softfp_sinf) refers to sinf.o(i.sinf) for sinf
    sinf.o(i.sinf) refers (Special) to iusefp.o(.text) for __I$use$fp
    sinf.o(i.sinf) refers to fmul.o(.text) for __aeabi_fmul
    sinf.o(i.sinf) refers to frnd.o(.text) for _frnd
    sinf.o(i.sinf) refers to ffixi.o(.text) for __aeabi_f2iz
    sinf.o(i.sinf) refers to fadd.o(.text) for __aeabi_frsub
    sinf.o(i.sinf) refers to rredf.o(i.__mathlib_rredf2) for __mathlib_rredf2
    sinf.o(i.sinf) refers to fpclassifyf.o(i.__ARM_fpclassifyf) for __ARM_fpclassifyf
    sinf.o(i.sinf) refers to funder.o(i.__mathlib_flt_underflow) for __mathlib_flt_underflow
    sinf.o(i.sinf) refers to errno.o(i.__set_errno) for __set_errno
    sinf.o(i.sinf) refers to funder.o(i.__mathlib_flt_invalid) for __mathlib_flt_invalid
    sinf.o(i.sinf) refers to funder.o(i.__mathlib_flt_infnan) for __mathlib_flt_infnan
    sinf_x.o(i.____softfp_sinf$lsc) refers (Special) to iusefp.o(.text) for __I$use$fp
    sinf_x.o(i.____softfp_sinf$lsc) refers to sinf_x.o(i.__sinf$lsc) for __sinf$lsc
    sinf_x.o(i.__sinf$lsc) refers (Special) to iusefp.o(.text) for __I$use$fp
    sinf_x.o(i.__sinf$lsc) refers to fmul.o(.text) for __aeabi_fmul
    sinf_x.o(i.__sinf$lsc) refers to frnd.o(.text) for _frnd
    sinf_x.o(i.__sinf$lsc) refers to ffixi.o(.text) for __aeabi_f2iz
    sinf_x.o(i.__sinf$lsc) refers to fadd.o(.text) for __aeabi_frsub
    sinf_x.o(i.__sinf$lsc) refers to rredf.o(i.__mathlib_rredf2) for __mathlib_rredf2
    sinf_x.o(i.__sinf$lsc) refers to errno.o(i.__set_errno) for __set_errno
    sinf_x.o(i.__sinf$lsc) refers to funder.o(i.__mathlib_flt_infnan) for __mathlib_flt_infnan
    tanf.o(i.__softfp_tanf) refers (Special) to iusefp.o(.text) for __I$use$fp
    tanf.o(i.__softfp_tanf) refers to tanf.o(i.tanf) for tanf
    tanf.o(i.tanf) refers (Special) to iusefp.o(.text) for __I$use$fp
    tanf.o(i.tanf) refers to fmul.o(.text) for __aeabi_fmul
    tanf.o(i.tanf) refers to frnd.o(.text) for _frnd
    tanf.o(i.tanf) refers to ffixi.o(.text) for __aeabi_f2iz
    tanf.o(i.tanf) refers to fadd.o(.text) for __aeabi_frsub
    tanf.o(i.tanf) refers to fdiv.o(.text) for __aeabi_fdiv
    tanf.o(i.tanf) refers to rredf.o(i.__mathlib_rredf2) for __mathlib_rredf2
    tanf.o(i.tanf) refers to fpclassifyf.o(i.__ARM_fpclassifyf) for __ARM_fpclassifyf
    tanf.o(i.tanf) refers to funder.o(i.__mathlib_flt_underflow) for __mathlib_flt_underflow
    tanf.o(i.tanf) refers to errno.o(i.__set_errno) for __set_errno
    tanf.o(i.tanf) refers to funder.o(i.__mathlib_flt_invalid) for __mathlib_flt_invalid
    tanf.o(i.tanf) refers to funder.o(i.__mathlib_flt_infnan) for __mathlib_flt_infnan
    tanf_x.o(i.____softfp_tanf$lsc) refers (Special) to iusefp.o(.text) for __I$use$fp
    tanf_x.o(i.____softfp_tanf$lsc) refers to tanf_x.o(i.__tanf$lsc) for __tanf$lsc
    tanf_x.o(i.__tanf$lsc) refers (Special) to iusefp.o(.text) for __I$use$fp
    tanf_x.o(i.__tanf$lsc) refers to fmul.o(.text) for __aeabi_fmul
    tanf_x.o(i.__tanf$lsc) refers to frnd.o(.text) for _frnd
    tanf_x.o(i.__tanf$lsc) refers to ffixi.o(.text) for __aeabi_f2iz
    tanf_x.o(i.__tanf$lsc) refers to fadd.o(.text) for __aeabi_frsub
    tanf_x.o(i.__tanf$lsc) refers to fdiv.o(.text) for __aeabi_fdiv
    tanf_x.o(i.__tanf$lsc) refers to rredf.o(i.__mathlib_rredf2) for __mathlib_rredf2
    tanf_x.o(i.__tanf$lsc) refers to errno.o(i.__set_errno) for __set_errno
    tanf_x.o(i.__tanf$lsc) refers to funder.o(i.__mathlib_flt_infnan) for __mathlib_flt_infnan
    entry.o(.ARM.Collect$$$$00000000) refers (Special) to entry10a.o(.ARM.Collect$$$$0000000D) for __rt_final_cpp
    entry.o(.ARM.Collect$$$$00000000) refers (Special) to entry11a.o(.ARM.Collect$$$$0000000F) for __rt_final_exit
    entry.o(.ARM.Collect$$$$00000000) refers (Special) to entry7b.o(.ARM.Collect$$$$00000008) for _main_clock
    entry.o(.ARM.Collect$$$$00000000) refers (Special) to entry8b.o(.ARM.Collect$$$$0000000A) for _main_cpp_init
    entry.o(.ARM.Collect$$$$00000000) refers (Special) to entry9a.o(.ARM.Collect$$$$0000000B) for _main_init
    entry.o(.ARM.Collect$$$$00000000) refers (Special) to entry5.o(.ARM.Collect$$$$00000004) for _main_scatterload
    entry.o(.ARM.Collect$$$$00000000) refers (Special) to entry2.o(.ARM.Collect$$$$00000001) for _main_stk
    ldiv.o(.text) refers to uldiv.o(.text) for __aeabi_uldivmod
    printfb.o(i.__0fprintf$bare) refers to printfb.o(i._printf_core) for _printf_core
    printfb.o(i.__0fprintf$bare) refers to hw_config.o(i.fputc) for fputc
    printfb.o(i.__0printf$bare) refers to printfb.o(i._printf_core) for _printf_core
    printfb.o(i.__0printf$bare) refers to hw_config.o(i.fputc) for fputc
    printfb.o(i.__0printf$bare) refers to stdout.o(.data) for __stdout
    printfb.o(i.__0snprintf$bare) refers to printfb.o(i._printf_core) for _printf_core
    printfb.o(i.__0snprintf$bare) refers to printfb.o(i._snputc) for _snputc
    printfb.o(i.__0sprintf$bare) refers to printfb.o(i._printf_core) for _printf_core
    printfb.o(i.__0sprintf$bare) refers to printfb.o(i._sputc) for _sputc
    printfb.o(i.__0vfprintf$bare) refers to printfb.o(i._printf_core) for _printf_core
    printfb.o(i.__0vfprintf$bare) refers to hw_config.o(i.fputc) for fputc
    printfb.o(i.__0vprintf$bare) refers to printfb.o(i._printf_core) for _printf_core
    printfb.o(i.__0vprintf$bare) refers to hw_config.o(i.fputc) for fputc
    printfb.o(i.__0vprintf$bare) refers to stdout.o(.data) for __stdout
    printfb.o(i.__0vsnprintf$bare) refers to printfb.o(i._printf_core) for _printf_core
    printfb.o(i.__0vsnprintf$bare) refers to printfb.o(i._snputc) for _snputc
    printfb.o(i.__0vsprintf$bare) refers to printfb.o(i._printf_core) for _printf_core
    printfb.o(i.__0vsprintf$bare) refers to printfb.o(i._sputc) for _sputc
    printf0.o(i.__0fprintf$0) refers to printf0.o(i._printf_core) for _printf_core
    printf0.o(i.__0fprintf$0) refers to hw_config.o(i.fputc) for fputc
    printf0.o(i.__0printf$0) refers to printf0.o(i._printf_core) for _printf_core
    printf0.o(i.__0printf$0) refers to hw_config.o(i.fputc) for fputc
    printf0.o(i.__0printf$0) refers to stdout.o(.data) for __stdout
    printf0.o(i.__0snprintf$0) refers to printf0.o(i._printf_core) for _printf_core
    printf0.o(i.__0snprintf$0) refers to printf0.o(i._snputc) for _snputc
    printf0.o(i.__0sprintf$0) refers to printf0.o(i._printf_core) for _printf_core
    printf0.o(i.__0sprintf$0) refers to printf0.o(i._sputc) for _sputc
    printf0.o(i.__0vfprintf$0) refers to printf0.o(i._printf_core) for _printf_core
    printf0.o(i.__0vfprintf$0) refers to hw_config.o(i.fputc) for fputc
    printf0.o(i.__0vprintf$0) refers to printf0.o(i._printf_core) for _printf_core
    printf0.o(i.__0vprintf$0) refers to hw_config.o(i.fputc) for fputc
    printf0.o(i.__0vprintf$0) refers to stdout.o(.data) for __stdout
    printf0.o(i.__0vsnprintf$0) refers to printf0.o(i._printf_core) for _printf_core
    printf0.o(i.__0vsnprintf$0) refers to printf0.o(i._snputc) for _snputc
    printf0.o(i.__0vsprintf$0) refers to printf0.o(i._printf_core) for _printf_core
    printf0.o(i.__0vsprintf$0) refers to printf0.o(i._sputc) for _sputc
    printf1.o(i.__0fprintf$1) refers to printf1.o(i._printf_core) for _printf_core
    printf1.o(i.__0fprintf$1) refers to hw_config.o(i.fputc) for fputc
    printf1.o(i.__0printf$1) refers to printf1.o(i._printf_core) for _printf_core
    printf1.o(i.__0printf$1) refers to hw_config.o(i.fputc) for fputc
    printf1.o(i.__0printf$1) refers to stdout.o(.data) for __stdout
    printf1.o(i.__0snprintf$1) refers to printf1.o(i._printf_core) for _printf_core
    printf1.o(i.__0snprintf$1) refers to printf1.o(i._snputc) for _snputc
    printf1.o(i.__0sprintf$1) refers to printf1.o(i._printf_core) for _printf_core
    printf1.o(i.__0sprintf$1) refers to printf1.o(i._sputc) for _sputc
    printf1.o(i.__0vfprintf$1) refers to printf1.o(i._printf_core) for _printf_core
    printf1.o(i.__0vfprintf$1) refers to hw_config.o(i.fputc) for fputc
    printf1.o(i.__0vprintf$1) refers to printf1.o(i._printf_core) for _printf_core
    printf1.o(i.__0vprintf$1) refers to hw_config.o(i.fputc) for fputc
    printf1.o(i.__0vprintf$1) refers to stdout.o(.data) for __stdout
    printf1.o(i.__0vsnprintf$1) refers to printf1.o(i._printf_core) for _printf_core
    printf1.o(i.__0vsnprintf$1) refers to printf1.o(i._snputc) for _snputc
    printf1.o(i.__0vsprintf$1) refers to printf1.o(i._printf_core) for _printf_core
    printf1.o(i.__0vsprintf$1) refers to printf1.o(i._sputc) for _sputc
    printf1.o(i._printf_core) refers to uidiv.o(.text) for __aeabi_uidivmod
    printf2.o(i.__0fprintf$2) refers to printf2.o(i._printf_core) for _printf_core
    printf2.o(i.__0fprintf$2) refers to hw_config.o(i.fputc) for fputc
    printf2.o(i.__0printf$2) refers to printf2.o(i._printf_core) for _printf_core
    printf2.o(i.__0printf$2) refers to hw_config.o(i.fputc) for fputc
    printf2.o(i.__0printf$2) refers to stdout.o(.data) for __stdout
    printf2.o(i.__0snprintf$2) refers to printf2.o(i._printf_core) for _printf_core
    printf2.o(i.__0snprintf$2) refers to printf2.o(i._snputc) for _snputc
    printf2.o(i.__0sprintf$2) refers to printf2.o(i._printf_core) for _printf_core
    printf2.o(i.__0sprintf$2) refers to printf2.o(i._sputc) for _sputc
    printf2.o(i.__0vfprintf$2) refers to printf2.o(i._printf_core) for _printf_core
    printf2.o(i.__0vfprintf$2) refers to hw_config.o(i.fputc) for fputc
    printf2.o(i.__0vprintf$2) refers to printf2.o(i._printf_core) for _printf_core
    printf2.o(i.__0vprintf$2) refers to hw_config.o(i.fputc) for fputc
    printf2.o(i.__0vprintf$2) refers to stdout.o(.data) for __stdout
    printf2.o(i.__0vsnprintf$2) refers to printf2.o(i._printf_core) for _printf_core
    printf2.o(i.__0vsnprintf$2) refers to printf2.o(i._snputc) for _snputc
    printf2.o(i.__0vsprintf$2) refers to printf2.o(i._printf_core) for _printf_core
    printf2.o(i.__0vsprintf$2) refers to printf2.o(i._sputc) for _sputc
    printf3.o(i.__0fprintf$3) refers to printf3.o(i._printf_core) for _printf_core
    printf3.o(i.__0fprintf$3) refers to hw_config.o(i.fputc) for fputc
    printf3.o(i.__0printf$3) refers to printf3.o(i._printf_core) for _printf_core
    printf3.o(i.__0printf$3) refers to hw_config.o(i.fputc) for fputc
    printf3.o(i.__0printf$3) refers to stdout.o(.data) for __stdout
    printf3.o(i.__0snprintf$3) refers to printf3.o(i._printf_core) for _printf_core
    printf3.o(i.__0snprintf$3) refers to printf3.o(i._snputc) for _snputc
    printf3.o(i.__0sprintf$3) refers to printf3.o(i._printf_core) for _printf_core
    printf3.o(i.__0sprintf$3) refers to printf3.o(i._sputc) for _sputc
    printf3.o(i.__0vfprintf$3) refers to printf3.o(i._printf_core) for _printf_core
    printf3.o(i.__0vfprintf$3) refers to hw_config.o(i.fputc) for fputc
    printf3.o(i.__0vprintf$3) refers to printf3.o(i._printf_core) for _printf_core
    printf3.o(i.__0vprintf$3) refers to hw_config.o(i.fputc) for fputc
    printf3.o(i.__0vprintf$3) refers to stdout.o(.data) for __stdout
    printf3.o(i.__0vsnprintf$3) refers to printf3.o(i._printf_core) for _printf_core
    printf3.o(i.__0vsnprintf$3) refers to printf3.o(i._snputc) for _snputc
    printf3.o(i.__0vsprintf$3) refers to printf3.o(i._printf_core) for _printf_core
    printf3.o(i.__0vsprintf$3) refers to printf3.o(i._sputc) for _sputc
    printf3.o(i._printf_core) refers to uidiv.o(.text) for __aeabi_uidivmod
    printf4.o(i.__0fprintf$4) refers to printf4.o(i._printf_core) for _printf_core
    printf4.o(i.__0fprintf$4) refers to hw_config.o(i.fputc) for fputc
    printf4.o(i.__0printf$4) refers to printf4.o(i._printf_core) for _printf_core
    printf4.o(i.__0printf$4) refers to hw_config.o(i.fputc) for fputc
    printf4.o(i.__0printf$4) refers to stdout.o(.data) for __stdout
    printf4.o(i.__0snprintf$4) refers to printf4.o(i._printf_core) for _printf_core
    printf4.o(i.__0snprintf$4) refers to printf4.o(i._snputc) for _snputc
    printf4.o(i.__0sprintf$4) refers to printf4.o(i._printf_core) for _printf_core
    printf4.o(i.__0sprintf$4) refers to printf4.o(i._sputc) for _sputc
    printf4.o(i.__0vfprintf$4) refers to printf4.o(i._printf_core) for _printf_core
    printf4.o(i.__0vfprintf$4) refers to hw_config.o(i.fputc) for fputc
    printf4.o(i.__0vprintf$4) refers to printf4.o(i._printf_core) for _printf_core
    printf4.o(i.__0vprintf$4) refers to hw_config.o(i.fputc) for fputc
    printf4.o(i.__0vprintf$4) refers to stdout.o(.data) for __stdout
    printf4.o(i.__0vsnprintf$4) refers to printf4.o(i._printf_core) for _printf_core
    printf4.o(i.__0vsnprintf$4) refers to printf4.o(i._snputc) for _snputc
    printf4.o(i.__0vsprintf$4) refers to printf4.o(i._printf_core) for _printf_core
    printf4.o(i.__0vsprintf$4) refers to printf4.o(i._sputc) for _sputc
    printf4.o(i._printf_core) refers to uldiv.o(.text) for __aeabi_uldivmod
    printf5.o(i.__0fprintf$5) refers to printf5.o(i._printf_core) for _printf_core
    printf5.o(i.__0fprintf$5) refers to hw_config.o(i.fputc) for fputc
    printf5.o(i.__0printf$5) refers to printf5.o(i._printf_core) for _printf_core
    printf5.o(i.__0printf$5) refers to hw_config.o(i.fputc) for fputc
    printf5.o(i.__0printf$5) refers to stdout.o(.data) for __stdout
    printf5.o(i.__0snprintf$5) refers to printf5.o(i._printf_core) for _printf_core
    printf5.o(i.__0snprintf$5) refers to printf5.o(i._snputc) for _snputc
    printf5.o(i.__0sprintf$5) refers to printf5.o(i._printf_core) for _printf_core
    printf5.o(i.__0sprintf$5) refers to printf5.o(i._sputc) for _sputc
    printf5.o(i.__0vfprintf$5) refers to printf5.o(i._printf_core) for _printf_core
    printf5.o(i.__0vfprintf$5) refers to hw_config.o(i.fputc) for fputc
    printf5.o(i.__0vprintf$5) refers to printf5.o(i._printf_core) for _printf_core
    printf5.o(i.__0vprintf$5) refers to hw_config.o(i.fputc) for fputc
    printf5.o(i.__0vprintf$5) refers to stdout.o(.data) for __stdout
    printf5.o(i.__0vsnprintf$5) refers to printf5.o(i._printf_core) for _printf_core
    printf5.o(i.__0vsnprintf$5) refers to printf5.o(i._snputc) for _snputc
    printf5.o(i.__0vsprintf$5) refers to printf5.o(i._printf_core) for _printf_core
    printf5.o(i.__0vsprintf$5) refers to printf5.o(i._sputc) for _sputc
    printf5.o(i._printf_core) refers to uldiv.o(.text) for __aeabi_uldivmod
    printf6.o(i.__0fprintf$6) refers to printf6.o(i._printf_core) for _printf_core
    printf6.o(i.__0fprintf$6) refers to hw_config.o(i.fputc) for fputc
    printf6.o(i.__0printf$6) refers to printf6.o(i._printf_core) for _printf_core
    printf6.o(i.__0printf$6) refers to hw_config.o(i.fputc) for fputc
    printf6.o(i.__0printf$6) refers to stdout.o(.data) for __stdout
    printf6.o(i.__0snprintf$6) refers to printf6.o(i._printf_core) for _printf_core
    printf6.o(i.__0snprintf$6) refers to printf6.o(i._snputc) for _snputc
    printf6.o(i.__0sprintf$6) refers to printf6.o(i._printf_core) for _printf_core
    printf6.o(i.__0sprintf$6) refers to printf6.o(i._sputc) for _sputc
    printf6.o(i.__0vfprintf$6) refers to printf6.o(i._printf_core) for _printf_core
    printf6.o(i.__0vfprintf$6) refers to hw_config.o(i.fputc) for fputc
    printf6.o(i.__0vprintf$6) refers to printf6.o(i._printf_core) for _printf_core
    printf6.o(i.__0vprintf$6) refers to hw_config.o(i.fputc) for fputc
    printf6.o(i.__0vprintf$6) refers to stdout.o(.data) for __stdout
    printf6.o(i.__0vsnprintf$6) refers to printf6.o(i._printf_core) for _printf_core
    printf6.o(i.__0vsnprintf$6) refers to printf6.o(i._snputc) for _snputc
    printf6.o(i.__0vsprintf$6) refers to printf6.o(i._printf_core) for _printf_core
    printf6.o(i.__0vsprintf$6) refers to printf6.o(i._sputc) for _sputc
    printf6.o(i._printf_core) refers to printf6.o(i._printf_pre_padding) for _printf_pre_padding
    printf6.o(i._printf_core) refers to uidiv.o(.text) for __aeabi_uidivmod
    printf6.o(i._printf_core) refers to printf6.o(i._printf_post_padding) for _printf_post_padding
    printf7.o(i.__0fprintf$7) refers to printf7.o(i._printf_core) for _printf_core
    printf7.o(i.__0fprintf$7) refers to hw_config.o(i.fputc) for fputc
    printf7.o(i.__0printf$7) refers to printf7.o(i._printf_core) for _printf_core
    printf7.o(i.__0printf$7) refers to hw_config.o(i.fputc) for fputc
    printf7.o(i.__0printf$7) refers to stdout.o(.data) for __stdout
    printf7.o(i.__0snprintf$7) refers to printf7.o(i._printf_core) for _printf_core
    printf7.o(i.__0snprintf$7) refers to printf7.o(i._snputc) for _snputc
    printf7.o(i.__0sprintf$7) refers to printf7.o(i._printf_core) for _printf_core
    printf7.o(i.__0sprintf$7) refers to printf7.o(i._sputc) for _sputc
    printf7.o(i.__0vfprintf$7) refers to printf7.o(i._printf_core) for _printf_core
    printf7.o(i.__0vfprintf$7) refers to hw_config.o(i.fputc) for fputc
    printf7.o(i.__0vprintf$7) refers to printf7.o(i._printf_core) for _printf_core
    printf7.o(i.__0vprintf$7) refers to hw_config.o(i.fputc) for fputc
    printf7.o(i.__0vprintf$7) refers to stdout.o(.data) for __stdout
    printf7.o(i.__0vsnprintf$7) refers to printf7.o(i._printf_core) for _printf_core
    printf7.o(i.__0vsnprintf$7) refers to printf7.o(i._snputc) for _snputc
    printf7.o(i.__0vsprintf$7) refers to printf7.o(i._printf_core) for _printf_core
    printf7.o(i.__0vsprintf$7) refers to printf7.o(i._sputc) for _sputc
    printf7.o(i._printf_core) refers to printf7.o(i._printf_pre_padding) for _printf_pre_padding
    printf7.o(i._printf_core) refers to uldiv.o(.text) for __aeabi_uldivmod
    printf7.o(i._printf_core) refers to printf7.o(i._printf_post_padding) for _printf_post_padding
    printf8.o(i.__0fprintf$8) refers to printf8.o(i._printf_core) for _printf_core
    printf8.o(i.__0fprintf$8) refers to hw_config.o(i.fputc) for fputc
    printf8.o(i.__0printf$8) refers to printf8.o(i._printf_core) for _printf_core
    printf8.o(i.__0printf$8) refers to hw_config.o(i.fputc) for fputc
    printf8.o(i.__0printf$8) refers to stdout.o(.data) for __stdout
    printf8.o(i.__0snprintf$8) refers to printf8.o(i._printf_core) for _printf_core
    printf8.o(i.__0snprintf$8) refers to printf8.o(i._snputc) for _snputc
    printf8.o(i.__0sprintf$8) refers to printf8.o(i._printf_core) for _printf_core
    printf8.o(i.__0sprintf$8) refers to printf8.o(i._sputc) for _sputc
    printf8.o(i.__0vfprintf$8) refers to printf8.o(i._printf_core) for _printf_core
    printf8.o(i.__0vfprintf$8) refers to hw_config.o(i.fputc) for fputc
    printf8.o(i.__0vprintf$8) refers to printf8.o(i._printf_core) for _printf_core
    printf8.o(i.__0vprintf$8) refers to hw_config.o(i.fputc) for fputc
    printf8.o(i.__0vprintf$8) refers to stdout.o(.data) for __stdout
    printf8.o(i.__0vsnprintf$8) refers to printf8.o(i._printf_core) for _printf_core
    printf8.o(i.__0vsnprintf$8) refers to printf8.o(i._snputc) for _snputc
    printf8.o(i.__0vsprintf$8) refers to printf8.o(i._printf_core) for _printf_core
    printf8.o(i.__0vsprintf$8) refers to printf8.o(i._sputc) for _sputc
    printf8.o(i._printf_core) refers to printf8.o(i._printf_pre_padding) for _printf_pre_padding
    printf8.o(i._printf_core) refers to uldiv.o(.text) for __aeabi_uldivmod
    printf8.o(i._printf_core) refers to printf8.o(i._printf_post_padding) for _printf_post_padding
    printfa.o(i.__0fprintf) refers (Special) to iusefp.o(.text) for __I$use$fp
    printfa.o(i.__0fprintf) refers to printfa.o(i._printf_core) for _printf_core
    printfa.o(i.__0fprintf) refers to hw_config.o(i.fputc) for fputc
    printfa.o(i.__0printf) refers (Special) to iusefp.o(.text) for __I$use$fp
    printfa.o(i.__0printf) refers to printfa.o(i._printf_core) for _printf_core
    printfa.o(i.__0printf) refers to hw_config.o(i.fputc) for fputc
    printfa.o(i.__0printf) refers to stdout.o(.data) for __stdout
    printfa.o(i.__0snprintf) refers (Special) to iusefp.o(.text) for __I$use$fp
    printfa.o(i.__0snprintf) refers to printfa.o(i._printf_core) for _printf_core
    printfa.o(i.__0snprintf) refers to printfa.o(i._snputc) for _snputc
    printfa.o(i.__0sprintf) refers (Special) to iusefp.o(.text) for __I$use$fp
    printfa.o(i.__0sprintf) refers to printfa.o(i._printf_core) for _printf_core
    printfa.o(i.__0sprintf) refers to printfa.o(i._sputc) for _sputc
    printfa.o(i.__0vfprintf) refers (Special) to iusefp.o(.text) for __I$use$fp
    printfa.o(i.__0vfprintf) refers to printfa.o(i._printf_core) for _printf_core
    printfa.o(i.__0vfprintf) refers to hw_config.o(i.fputc) for fputc
    printfa.o(i.__0vprintf) refers (Special) to iusefp.o(.text) for __I$use$fp
    printfa.o(i.__0vprintf) refers to printfa.o(i._printf_core) for _printf_core
    printfa.o(i.__0vprintf) refers to hw_config.o(i.fputc) for fputc
    printfa.o(i.__0vprintf) refers to stdout.o(.data) for __stdout
    printfa.o(i.__0vsnprintf) refers (Special) to iusefp.o(.text) for __I$use$fp
    printfa.o(i.__0vsnprintf) refers to printfa.o(i._printf_core) for _printf_core
    printfa.o(i.__0vsnprintf) refers to printfa.o(i._snputc) for _snputc
    printfa.o(i.__0vsprintf) refers (Special) to iusefp.o(.text) for __I$use$fp
    printfa.o(i.__0vsprintf) refers to printfa.o(i._printf_core) for _printf_core
    printfa.o(i.__0vsprintf) refers to printfa.o(i._sputc) for _sputc
    printfa.o(i._fp_digits) refers (Special) to iusefp.o(.text) for __I$use$fp
    printfa.o(i._fp_digits) refers to dmul.o(.text) for __aeabi_dmul
    printfa.o(i._fp_digits) refers to ddiv.o(.text) for __aeabi_ddiv
    printfa.o(i._fp_digits) refers to cdrcmple.o(.text) for __aeabi_cdrcmple
    printfa.o(i._fp_digits) refers to dadd.o(.text) for __aeabi_dadd
    printfa.o(i._fp_digits) refers to dfixul.o(.text) for __aeabi_d2ulz
    printfa.o(i._fp_digits) refers to uldiv.o(.text) for __aeabi_uldivmod
    printfa.o(i._printf_core) refers (Special) to iusefp.o(.text) for __I$use$fp
    printfa.o(i._printf_core) refers to printfa.o(i._printf_pre_padding) for _printf_pre_padding
    printfa.o(i._printf_core) refers to uldiv.o(.text) for __aeabi_uldivmod
    printfa.o(i._printf_core) refers to printfa.o(i._printf_post_padding) for _printf_post_padding
    printfa.o(i._printf_core) refers to printfa.o(i._fp_digits) for _fp_digits
    printfa.o(i._printf_core) refers to uidiv.o(.text) for __aeabi_uidivmod
    printfa.o(i._printf_post_padding) refers (Special) to iusefp.o(.text) for __I$use$fp
    printfa.o(i._printf_pre_padding) refers (Special) to iusefp.o(.text) for __I$use$fp
    printfa.o(i._snputc) refers (Special) to iusefp.o(.text) for __I$use$fp
    printfa.o(i._sputc) refers (Special) to iusefp.o(.text) for __I$use$fp
    fadd.o(.text) refers (Special) to iusefp.o(.text) for __I$use$fp
    fadd.o(.text) refers to fepilogue.o(.text) for _float_epilogue
    fmul.o(.text) refers (Special) to iusefp.o(.text) for __I$use$fp
    fdiv.o(.text) refers (Special) to iusefp.o(.text) for __I$use$fp
    fdiv.o(.text) refers to fepilogue.o(.text) for _float_round
    fscalb.o(.text) refers (Special) to iusefp.o(.text) for __I$use$fp
    dadd.o(.text) refers (Special) to iusefp.o(.text) for __I$use$fp
    dadd.o(.text) refers to llshl.o(.text) for __aeabi_llsl
    dadd.o(.text) refers to llsshr.o(.text) for __aeabi_lasr
    dadd.o(.text) refers to depilogue.o(.text) for _double_epilogue
    dmul.o(.text) refers (Special) to iusefp.o(.text) for __I$use$fp
    dmul.o(.text) refers to depilogue.o(.text) for _double_epilogue
    ddiv.o(.text) refers (Special) to iusefp.o(.text) for __I$use$fp
    ddiv.o(.text) refers to depilogue.o(.text) for _double_round
    fflti.o(.text) refers (Special) to iusefp.o(.text) for __I$use$fp
    fflti.o(.text) refers to fepilogue.o(.text) for _float_epilogue
    ffltui.o(.text) refers (Special) to iusefp.o(.text) for __I$use$fp
    ffltui.o(.text) refers to fepilogue.o(.text) for _float_epilogue
    ffixi.o(.text) refers (Special) to iusefp.o(.text) for __I$use$fp
    ffixui.o(.text) refers (Special) to iusefp.o(.text) for __I$use$fp
    f2d.o(.text) refers (Special) to iusefp.o(.text) for __I$use$fp
    d2f.o(.text) refers (Special) to iusefp.o(.text) for __I$use$fp
    d2f.o(.text) refers to fepilogue.o(.text) for _float_round
    cfcmple.o(.text) refers (Special) to iusefp.o(.text) for __I$use$fp
    cfrcmple.o(.text) refers (Special) to iusefp.o(.text) for __I$use$fp
    dunder.o(i.__mathlib_dbl_divzero) refers to ddiv.o(.text) for __aeabi_ddiv
    dunder.o(i.__mathlib_dbl_infnan) refers to dscalb.o(.text) for __ARM_scalbn
    dunder.o(i.__mathlib_dbl_infnan2) refers to dadd.o(.text) for __aeabi_dadd
    dunder.o(i.__mathlib_dbl_invalid) refers to ddiv.o(.text) for __aeabi_ddiv
    dunder.o(i.__mathlib_dbl_overflow) refers to dscalb.o(.text) for __ARM_scalbn
    dunder.o(i.__mathlib_dbl_posinfnan) refers to dmul.o(.text) for __aeabi_dmul
    dunder.o(i.__mathlib_dbl_underflow) refers to dscalb.o(.text) for __ARM_scalbn
    fpclassify.o(i.__ARM_fpclassify) refers (Special) to iusefp.o(.text) for __I$use$fp
    fpclassifyf.o(i.__ARM_fpclassifyf) refers (Special) to iusefp.o(.text) for __I$use$fp
    funder.o(i.__mathlib_flt_divzero) refers to fdiv.o(.text) for __aeabi_fdiv
    funder.o(i.__mathlib_flt_infnan) refers to fscalb.o(.text) for __ARM_scalbnf
    funder.o(i.__mathlib_flt_infnan2) refers to fadd.o(.text) for __aeabi_fadd
    funder.o(i.__mathlib_flt_invalid) refers to fdiv.o(.text) for __aeabi_fdiv
    funder.o(i.__mathlib_flt_overflow) refers to fscalb.o(.text) for __ARM_scalbnf
    funder.o(i.__mathlib_flt_posinfnan) refers to fmul.o(.text) for __aeabi_fmul
    funder.o(i.__mathlib_flt_underflow) refers to fscalb.o(.text) for __ARM_scalbnf
    poly.o(i.__kernel_poly) refers (Special) to iusefp.o(.text) for __I$use$fp
    poly.o(i.__kernel_poly) refers to dmul.o(.text) for __aeabi_dmul
    poly.o(i.__kernel_poly) refers to dadd.o(.text) for __aeabi_dadd
    qnan.o(.constdata) refers (Special) to iusefp.o(.text) for __I$use$fp
    rredf.o(i.__mathlib_rredf2) refers (Special) to iusefp.o(.text) for __I$use$fp
    rredf.o(i.__mathlib_rredf2) refers to fflti.o(.text) for __aeabi_i2f
    rredf.o(i.__mathlib_rredf2) refers to ffltui.o(.text) for __aeabi_ui2f
    rredf.o(i.__mathlib_rredf2) refers to fscalb.o(.text) for __ARM_scalbnf
    rredf.o(i.__mathlib_rredf2) refers to fadd.o(.text) for __aeabi_fadd
    rredf.o(i.__mathlib_rredf2) refers to fmul.o(.text) for __aeabi_fmul
    rredf.o(i.__mathlib_rredf2) refers to rredf.o(.constdata) for .constdata
    rredf.o(.constdata) refers (Special) to iusefp.o(.text) for __I$use$fp
    sqrt.o(i.__softfp_sqrt) refers (Special) to iusefp.o(.text) for __I$use$fp
    sqrt.o(i.__softfp_sqrt) refers to dsqrt.o(.text) for _dsqrt
    sqrt.o(i.__softfp_sqrt) refers to errno.o(i.__set_errno) for __set_errno
    sqrt.o(i.sqrt) refers (Special) to iusefp.o(.text) for __I$use$fp
    sqrt.o(i.sqrt) refers to dsqrt.o(.text) for _dsqrt
    sqrt.o(i.sqrt) refers to errno.o(i.__set_errno) for __set_errno
    sqrt_x.o(i.____softfp_sqrt$lsc) refers (Special) to iusefp.o(.text) for __I$use$fp
    sqrt_x.o(i.____softfp_sqrt$lsc) refers to cdcmple.o(.text) for __aeabi_cdcmple
    sqrt_x.o(i.____softfp_sqrt$lsc) refers to errno.o(i.__set_errno) for __set_errno
    sqrt_x.o(i.____softfp_sqrt$lsc) refers to dsqrt.o(.text) for _dsqrt
    sqrt_x.o(i.__sqrt$lsc) refers (Special) to iusefp.o(.text) for __I$use$fp
    sqrt_x.o(i.__sqrt$lsc) refers to cdcmple.o(.text) for __aeabi_cdcmple
    sqrt_x.o(i.__sqrt$lsc) refers to errno.o(i.__set_errno) for __set_errno
    sqrt_x.o(i.__sqrt$lsc) refers to dsqrt.o(.text) for _dsqrt
    sqrtf.o(i.__softfp_sqrtf) refers (Special) to iusefp.o(.text) for __I$use$fp
    sqrtf.o(i.__softfp_sqrtf) refers to fsqrt.o(.text) for _fsqrt
    sqrtf.o(i.__softfp_sqrtf) refers to errno.o(i.__set_errno) for __set_errno
    sqrtf.o(i.sqrtf) refers (Special) to iusefp.o(.text) for __I$use$fp
    sqrtf.o(i.sqrtf) refers to fsqrt.o(.text) for _fsqrt
    sqrtf.o(i.sqrtf) refers to errno.o(i.__set_errno) for __set_errno
    sqrtf_x.o(i.____softfp_sqrtf$lsc) refers (Special) to iusefp.o(.text) for __I$use$fp
    sqrtf_x.o(i.____softfp_sqrtf$lsc) refers to errno.o(i.__set_errno) for __set_errno
    sqrtf_x.o(i.____softfp_sqrtf$lsc) refers to fsqrt.o(.text) for _fsqrt
    sqrtf_x.o(i.__sqrtf$lsc) refers (Special) to iusefp.o(.text) for __I$use$fp
    sqrtf_x.o(i.__sqrtf$lsc) refers to errno.o(i.__set_errno) for __set_errno
    sqrtf_x.o(i.__sqrtf$lsc) refers to fsqrt.o(.text) for _fsqrt
    entry2.o(.ARM.Collect$$$$00000001) refers to entry2.o(.ARM.Collect$$$$00002712) for __lit__00000000
    entry2.o(.ARM.Collect$$$$00002712) refers to startup_stm32f10x_md.o(STACK) for __initial_sp
    entry2.o(__vectab_stack_and_reset_area) refers to startup_stm32f10x_md.o(STACK) for __initial_sp
    entry2.o(__vectab_stack_and_reset_area) refers to entry.o(.ARM.Collect$$$$00000000) for __main
    entry5.o(.ARM.Collect$$$$00000004) refers to init.o(.text) for __scatterload
    entry9a.o(.ARM.Collect$$$$0000000B) refers to main.o(i.main) for main
    entry9b.o(.ARM.Collect$$$$0000000C) refers to main.o(i.main) for main
    uldiv.o(.text) refers to llushr.o(.text) for __aeabi_llsr
    uldiv.o(.text) refers to llshl.o(.text) for __aeabi_llsl
    errno.o(i.__aeabi_errno_addr) refers to errno.o(.data) for .data
    errno.o(i.__read_errno) refers to errno.o(.data) for .data
    errno.o(i.__set_errno) refers to errno.o(.data) for .data
    frnd.o(.text) refers to fepilogue.o(.text) for _float_round
    depilogue.o(.text) refers to llshl.o(.text) for __aeabi_llsl
    depilogue.o(.text) refers to llushr.o(.text) for __aeabi_llsr
    dflti.o(.text) refers to depilogue.o(.text) for _double_epilogue
    dfixul.o(.text) refers to llushr.o(.text) for __aeabi_llsr
    dfixul.o(.text) refers to llshl.o(.text) for __aeabi_llsl
    init.o(.text) refers to entry5.o(.ARM.Collect$$$$00000004) for __main_after_scatterload
    fsqrt.o(.text) refers to fepilogue.o(.text) for _float_round
    dsqrt.o(.text) refers to llushr.o(.text) for __aeabi_llsr
    dsqrt.o(.text) refers to depilogue.o(.text) for _double_round


==============================================================================

Removing Unused input sections from the image.

    Removing startup_stm32f10x_md.o(HEAP), (512 bytes).
    Removing system_stm32f10x.o(i.SystemCoreClockUpdate), (116 bytes).
    Removing misc.o(i.NVIC_SystemLPConfig), (24 bytes).
    Removing misc.o(i.SysTick_CLKSourceConfig), (24 bytes).
    Removing stm32f10x_usart.o(i.USART_ClearFlag), (6 bytes).
    Removing stm32f10x_usart.o(i.USART_ClearITPendingBit), (12 bytes).
    Removing stm32f10x_usart.o(i.USART_ClockInit), (30 bytes).
    Removing stm32f10x_usart.o(i.USART_ClockStructInit), (12 bytes).
    Removing stm32f10x_usart.o(i.USART_Cmd), (20 bytes).
    Removing stm32f10x_usart.o(i.USART_DMACmd), (16 bytes).
    Removing stm32f10x_usart.o(i.USART_GetFlagStatus), (14 bytes).
    Removing stm32f10x_usart.o(i.USART_GetITStatus), (62 bytes).
    Removing stm32f10x_usart.o(i.USART_HalfDuplexCmd), (20 bytes).
    Removing stm32f10x_usart.o(i.USART_ITConfig), (48 bytes).
    Removing stm32f10x_usart.o(i.USART_Init), (172 bytes).
    Removing stm32f10x_usart.o(i.USART_IrDACmd), (20 bytes).
    Removing stm32f10x_usart.o(i.USART_IrDAConfig), (16 bytes).
    Removing stm32f10x_usart.o(i.USART_LINBreakDetectLengthConfig), (16 bytes).
    Removing stm32f10x_usart.o(i.USART_LINCmd), (20 bytes).
    Removing stm32f10x_usart.o(i.USART_OneBitMethodCmd), (20 bytes).
    Removing stm32f10x_usart.o(i.USART_OverSampling8Cmd), (20 bytes).
    Removing stm32f10x_usart.o(i.USART_ReceiveData), (8 bytes).
    Removing stm32f10x_usart.o(i.USART_ReceiverWakeUpCmd), (20 bytes).
    Removing stm32f10x_usart.o(i.USART_SendBreak), (10 bytes).
    Removing stm32f10x_usart.o(i.USART_SendData), (8 bytes).
    Removing stm32f10x_usart.o(i.USART_SetAddress), (16 bytes).
    Removing stm32f10x_usart.o(i.USART_SetGuardTime), (16 bytes).
    Removing stm32f10x_usart.o(i.USART_SetPrescaler), (16 bytes).
    Removing stm32f10x_usart.o(i.USART_SmartCardCmd), (20 bytes).
    Removing stm32f10x_usart.o(i.USART_SmartCardNACKCmd), (20 bytes).
    Removing stm32f10x_usart.o(i.USART_StructInit), (22 bytes).
    Removing stm32f10x_usart.o(i.USART_WakeUpConfig), (16 bytes).
    Removing stm32f10x_gpio.o(i.GPIO_AFIODeInit), (22 bytes).
    Removing stm32f10x_gpio.o(i.GPIO_ETH_MediaInterfaceConfig), (12 bytes).
    Removing stm32f10x_gpio.o(i.GPIO_EXTILineConfig), (40 bytes).
    Removing stm32f10x_gpio.o(i.GPIO_EventOutputCmd), (12 bytes).
    Removing stm32f10x_gpio.o(i.GPIO_EventOutputConfig), (28 bytes).
    Removing stm32f10x_gpio.o(i.GPIO_PinLockConfig), (16 bytes).
    Removing stm32f10x_gpio.o(i.GPIO_ReadInputData), (6 bytes).
    Removing stm32f10x_gpio.o(i.GPIO_ReadOutputData), (6 bytes).
    Removing stm32f10x_gpio.o(i.GPIO_ReadOutputDataBit), (14 bytes).
    Removing stm32f10x_gpio.o(i.GPIO_StructInit), (16 bytes).
    Removing stm32f10x_gpio.o(i.GPIO_Write), (4 bytes).
    Removing stm32f10x_gpio.o(i.GPIO_WriteBit), (10 bytes).
    Removing stm32f10x_adc.o(i.ADC_AnalogWatchdogCmd), (16 bytes).
    Removing stm32f10x_adc.o(i.ADC_AnalogWatchdogSingleChannelConfig), (12 bytes).
    Removing stm32f10x_adc.o(i.ADC_AnalogWatchdogThresholdsConfig), (6 bytes).
    Removing stm32f10x_adc.o(i.ADC_AutoInjectedConvCmd), (20 bytes).
    Removing stm32f10x_adc.o(i.ADC_ClearFlag), (6 bytes).
    Removing stm32f10x_adc.o(i.ADC_ClearITPendingBit), (8 bytes).
    Removing stm32f10x_adc.o(i.ADC_DMACmd), (20 bytes).
    Removing stm32f10x_adc.o(i.ADC_DeInit), (68 bytes).
    Removing stm32f10x_adc.o(i.ADC_DiscModeChannelCountConfig), (16 bytes).
    Removing stm32f10x_adc.o(i.ADC_DiscModeCmd), (20 bytes).
    Removing stm32f10x_adc.o(i.ADC_ExternalTrigConvCmd), (20 bytes).
    Removing stm32f10x_adc.o(i.ADC_ExternalTrigInjectedConvCmd), (20 bytes).
    Removing stm32f10x_adc.o(i.ADC_ExternalTrigInjectedConvConfig), (12 bytes).
    Removing stm32f10x_adc.o(i.ADC_GetDualModeConversionValue), (12 bytes).
    Removing stm32f10x_adc.o(i.ADC_GetITStatus), (28 bytes).
    Removing stm32f10x_adc.o(i.ADC_GetInjectedConversionValue), (14 bytes).
    Removing stm32f10x_adc.o(i.ADC_GetSoftwareStartConvStatus), (14 bytes).
    Removing stm32f10x_adc.o(i.ADC_GetSoftwareStartInjectedConvCmdStatus), (14 bytes).
    Removing stm32f10x_adc.o(i.ADC_ITConfig), (18 bytes).
    Removing stm32f10x_adc.o(i.ADC_InjectedChannelConfig), (74 bytes).
    Removing stm32f10x_adc.o(i.ADC_InjectedDiscModeCmd), (20 bytes).
    Removing stm32f10x_adc.o(i.ADC_InjectedSequencerLengthConfig), (16 bytes).
    Removing stm32f10x_adc.o(i.ADC_SetInjectedOffset), (10 bytes).
    Removing stm32f10x_adc.o(i.ADC_SoftwareStartInjectedConvCmd), (20 bytes).
    Removing stm32f10x_adc.o(i.ADC_StructInit), (18 bytes).
    Removing stm32f10x_adc.o(i.ADC_TempSensorVrefintCmd), (28 bytes).
    Removing stm32f10x_tim.o(i.TI1_Config), (108 bytes).
    Removing stm32f10x_tim.o(i.TI2_Config), (124 bytes).
    Removing stm32f10x_tim.o(i.TIM_ARRPreloadConfig), (20 bytes).
    Removing stm32f10x_tim.o(i.TIM_BDTRConfig), (34 bytes).
    Removing stm32f10x_tim.o(i.TIM_BDTRStructInit), (18 bytes).
    Removing stm32f10x_tim.o(i.TIM_CCPreloadControl), (20 bytes).
    Removing stm32f10x_tim.o(i.TIM_CCxCmd), (22 bytes).
    Removing stm32f10x_tim.o(i.TIM_CCxNCmd), (22 bytes).
    Removing stm32f10x_tim.o(i.TIM_ClearFlag), (6 bytes).
    Removing stm32f10x_tim.o(i.TIM_ClearITPendingBit), (6 bytes).
    Removing stm32f10x_tim.o(i.TIM_ClearOC1Ref), (12 bytes).
    Removing stm32f10x_tim.o(i.TIM_ClearOC2Ref), (20 bytes).
    Removing stm32f10x_tim.o(i.TIM_ClearOC3Ref), (12 bytes).
    Removing stm32f10x_tim.o(i.TIM_ClearOC4Ref), (20 bytes).
    Removing stm32f10x_tim.o(i.TIM_CounterModeConfig), (12 bytes).
    Removing stm32f10x_tim.o(i.TIM_CtrlPWMOutputs), (22 bytes).
    Removing stm32f10x_tim.o(i.TIM_DMACmd), (16 bytes).
    Removing stm32f10x_tim.o(i.TIM_DMAConfig), (8 bytes).
    Removing stm32f10x_tim.o(i.TIM_ETRClockMode1Config), (18 bytes).
    Removing stm32f10x_tim.o(i.TIM_ETRClockMode2Config), (18 bytes).
    Removing stm32f10x_tim.o(i.TIM_ETRConfig), (24 bytes).
    Removing stm32f10x_tim.o(i.TIM_EncoderInterfaceConfig), (50 bytes).
    Removing stm32f10x_tim.o(i.TIM_ForcedOC1Config), (12 bytes).
    Removing stm32f10x_tim.o(i.TIM_ForcedOC2Config), (20 bytes).
    Removing stm32f10x_tim.o(i.TIM_ForcedOC3Config), (12 bytes).
    Removing stm32f10x_tim.o(i.TIM_ForcedOC4Config), (20 bytes).
    Removing stm32f10x_tim.o(i.TIM_GenerateEvent), (4 bytes).
    Removing stm32f10x_tim.o(i.TIM_GetCapture1), (4 bytes).
    Removing stm32f10x_tim.o(i.TIM_GetCapture2), (4 bytes).
    Removing stm32f10x_tim.o(i.TIM_GetCapture3), (4 bytes).
    Removing stm32f10x_tim.o(i.TIM_GetCapture4), (6 bytes).
    Removing stm32f10x_tim.o(i.TIM_GetCounter), (4 bytes).
    Removing stm32f10x_tim.o(i.TIM_GetFlagStatus), (14 bytes).
    Removing stm32f10x_tim.o(i.TIM_GetITStatus), (24 bytes).
    Removing stm32f10x_tim.o(i.TIM_GetPrescaler), (4 bytes).
    Removing stm32f10x_tim.o(i.TIM_ICInit), (300 bytes).
    Removing stm32f10x_tim.o(i.TIM_ICStructInit), (16 bytes).
    Removing stm32f10x_tim.o(i.TIM_ITConfig), (16 bytes).
    Removing stm32f10x_tim.o(i.TIM_ITRxExternalClockConfig), (18 bytes).
    Removing stm32f10x_tim.o(i.TIM_InternalClockConfig), (10 bytes).
    Removing stm32f10x_tim.o(i.TIM_OC1FastConfig), (12 bytes).
    Removing stm32f10x_tim.o(i.TIM_OC1NPolarityConfig), (12 bytes).
    Removing stm32f10x_tim.o(i.TIM_OC1PolarityConfig), (12 bytes).
    Removing stm32f10x_tim.o(i.TIM_OC2FastConfig), (20 bytes).
    Removing stm32f10x_tim.o(i.TIM_OC2NPolarityConfig), (20 bytes).
    Removing stm32f10x_tim.o(i.TIM_OC2PolarityConfig), (20 bytes).
    Removing stm32f10x_tim.o(i.TIM_OC3FastConfig), (12 bytes).
    Removing stm32f10x_tim.o(i.TIM_OC3NPolarityConfig), (20 bytes).
    Removing stm32f10x_tim.o(i.TIM_OC3PolarityConfig), (20 bytes).
    Removing stm32f10x_tim.o(i.TIM_OC4FastConfig), (20 bytes).
    Removing stm32f10x_tim.o(i.TIM_OC4PolarityConfig), (20 bytes).
    Removing stm32f10x_tim.o(i.TIM_PWMIConfig), (108 bytes).
    Removing stm32f10x_tim.o(i.TIM_PrescalerConfig), (6 bytes).
    Removing stm32f10x_tim.o(i.TIM_SelectCCDMA), (20 bytes).
    Removing stm32f10x_tim.o(i.TIM_SelectCOM), (20 bytes).
    Removing stm32f10x_tim.o(i.TIM_SelectHallSensor), (20 bytes).
    Removing stm32f10x_tim.o(i.TIM_SelectInputTrigger), (12 bytes).
    Removing stm32f10x_tim.o(i.TIM_SelectMasterSlaveMode), (16 bytes).
    Removing stm32f10x_tim.o(i.TIM_SelectOCxM), (70 bytes).
    Removing stm32f10x_tim.o(i.TIM_SelectOnePulseMode), (16 bytes).
    Removing stm32f10x_tim.o(i.TIM_SelectOutputTrigger), (16 bytes).
    Removing stm32f10x_tim.o(i.TIM_SelectSlaveMode), (16 bytes).
    Removing stm32f10x_tim.o(i.TIM_SetAutoreload), (4 bytes).
    Removing stm32f10x_tim.o(i.TIM_SetClockDivision), (16 bytes).
    Removing stm32f10x_tim.o(i.TIM_SetCompare1), (4 bytes).
    Removing stm32f10x_tim.o(i.TIM_SetCompare2), (4 bytes).
    Removing stm32f10x_tim.o(i.TIM_SetCompare3), (4 bytes).
    Removing stm32f10x_tim.o(i.TIM_SetCompare4), (6 bytes).
    Removing stm32f10x_tim.o(i.TIM_SetCounter), (4 bytes).
    Removing stm32f10x_tim.o(i.TIM_SetIC1Prescaler), (16 bytes).
    Removing stm32f10x_tim.o(i.TIM_SetIC2Prescaler), (24 bytes).
    Removing stm32f10x_tim.o(i.TIM_SetIC3Prescaler), (16 bytes).
    Removing stm32f10x_tim.o(i.TIM_SetIC4Prescaler), (24 bytes).
    Removing stm32f10x_tim.o(i.TIM_TIxExternalClockConfig), (46 bytes).
    Removing stm32f10x_tim.o(i.TIM_TimeBaseStructInit), (18 bytes).
    Removing stm32f10x_tim.o(i.TIM_UpdateDisableConfig), (20 bytes).
    Removing stm32f10x_tim.o(i.TIM_UpdateRequestConfig), (20 bytes).
    Removing stm32f10x_exti.o(i.EXTI_ClearFlag), (12 bytes).
    Removing stm32f10x_exti.o(i.EXTI_DeInit), (36 bytes).
    Removing stm32f10x_exti.o(i.EXTI_GenerateSWInterrupt), (16 bytes).
    Removing stm32f10x_exti.o(i.EXTI_GetFlagStatus), (20 bytes).
    Removing stm32f10x_exti.o(i.EXTI_GetITStatus), (32 bytes).
    Removing stm32f10x_exti.o(i.EXTI_StructInit), (14 bytes).
    Removing stm32f10x_i2c.o(i.I2C_Write), (68 bytes).
    Removing stm32f10x_rcc.o(i.RCC_ADCCLKConfig), (20 bytes).
    Removing stm32f10x_rcc.o(i.RCC_AHBPeriphClockCmd), (24 bytes).
    Removing stm32f10x_rcc.o(i.RCC_AdjustHSICalibrationValue), (20 bytes).
    Removing stm32f10x_rcc.o(i.RCC_BackupResetCmd), (12 bytes).
    Removing stm32f10x_rcc.o(i.RCC_ClearFlag), (16 bytes).
    Removing stm32f10x_rcc.o(i.RCC_ClearITPendingBit), (12 bytes).
    Removing stm32f10x_rcc.o(i.RCC_ClockSecuritySystemCmd), (12 bytes).
    Removing stm32f10x_rcc.o(i.RCC_GetClocksFreq), (160 bytes).
    Removing stm32f10x_rcc.o(i.RCC_GetFlagStatus), (48 bytes).
    Removing stm32f10x_rcc.o(i.RCC_GetITStatus), (20 bytes).
    Removing stm32f10x_rcc.o(i.RCC_GetSYSCLKSource), (16 bytes).
    Removing stm32f10x_rcc.o(i.RCC_HCLKConfig), (20 bytes).
    Removing stm32f10x_rcc.o(i.RCC_HSEConfig), (52 bytes).
    Removing stm32f10x_rcc.o(i.RCC_HSICmd), (12 bytes).
    Removing stm32f10x_rcc.o(i.RCC_ITConfig), (24 bytes).
    Removing stm32f10x_rcc.o(i.RCC_LSEConfig), (32 bytes).
    Removing stm32f10x_rcc.o(i.RCC_LSICmd), (12 bytes).
    Removing stm32f10x_rcc.o(i.RCC_MCOConfig), (12 bytes).
    Removing stm32f10x_rcc.o(i.RCC_PCLK1Config), (20 bytes).
    Removing stm32f10x_rcc.o(i.RCC_PCLK2Config), (20 bytes).
    Removing stm32f10x_rcc.o(i.RCC_PLLCmd), (12 bytes).
    Removing stm32f10x_rcc.o(i.RCC_PLLConfig), (20 bytes).
    Removing stm32f10x_rcc.o(i.RCC_RTCCLKCmd), (12 bytes).
    Removing stm32f10x_rcc.o(i.RCC_RTCCLKConfig), (16 bytes).
    Removing stm32f10x_rcc.o(i.RCC_SYSCLKConfig), (20 bytes).
    Removing stm32f10x_rcc.o(i.RCC_WaitForHSEStartUp), (44 bytes).
    Removing stm32f10x_rcc.o(.data), (20 bytes).
    Removing stm32f10x_spi.o(i.I2S_Cmd), (20 bytes).
    Removing stm32f10x_spi.o(i.I2S_Init), (150 bytes).
    Removing stm32f10x_spi.o(i.I2S_StructInit), (18 bytes).
    Removing stm32f10x_spi.o(i.SPI_BiDirectionalLineConfig), (22 bytes).
    Removing stm32f10x_spi.o(i.SPI_CalculateCRC), (20 bytes).
    Removing stm32f10x_spi.o(i.SPI_DataSizeConfig), (16 bytes).
    Removing stm32f10x_spi.o(i.SPI_GetCRC), (12 bytes).
    Removing stm32f10x_spi.o(i.SPI_GetCRCPolynomial), (4 bytes).
    Removing stm32f10x_spi.o(i.SPI_I2S_ClearFlag), (6 bytes).
    Removing stm32f10x_spi.o(i.SPI_I2S_ClearITPendingBit), (14 bytes).
    Removing stm32f10x_spi.o(i.SPI_I2S_DMACmd), (16 bytes).
    Removing stm32f10x_spi.o(i.SPI_I2S_DeInit), (84 bytes).
    Removing stm32f10x_spi.o(i.SPI_I2S_GetITStatus), (44 bytes).
    Removing stm32f10x_spi.o(i.SPI_I2S_ITConfig), (24 bytes).
    Removing stm32f10x_spi.o(i.SPI_NSSInternalSoftwareConfig), (24 bytes).
    Removing stm32f10x_spi.o(i.SPI_SSOutputCmd), (20 bytes).
    Removing stm32f10x_spi.o(i.SPI_StructInit), (24 bytes).
    Removing stm32f10x_spi.o(i.SPI_TransmitCRC), (10 bytes).
    Removing stm32fx_delay.o(i.DelayMs_Tick), (16 bytes).
    Removing stm32fx_delay.o(i.DelayUs_Tick), (44 bytes).
    Removing stm32fx_delay.o(i.Init_SysTick), (36 bytes).
    Removing stm32fx_delay.o(i.delay), (24 bytes).
    Removing stm32fx_delay.o(.data), (8 bytes).
    Removing stm32f10x_pwr.o(i.PWR_BackupAccessCmd), (12 bytes).
    Removing stm32f10x_pwr.o(i.PWR_ClearFlag), (16 bytes).
    Removing stm32f10x_pwr.o(i.PWR_DeInit), (24 bytes).
    Removing stm32f10x_pwr.o(i.PWR_EnterSTANDBYMode), (40 bytes).
    Removing stm32f10x_pwr.o(i.PWR_EnterSTOPMode), (52 bytes).
    Removing stm32f10x_pwr.o(i.PWR_GetFlagStatus), (20 bytes).
    Removing stm32f10x_pwr.o(i.PWR_PVDCmd), (12 bytes).
    Removing stm32f10x_pwr.o(i.PWR_PVDLevelConfig), (20 bytes).
    Removing stm32f10x_pwr.o(i.PWR_WakeUpPinCmd), (12 bytes).
    Removing stm32f10x_flash.o(i.FLASH_ClearFlag), (12 bytes).
    Removing stm32f10x_flash.o(i.FLASH_EnableWriteProtection), (172 bytes).
    Removing stm32f10x_flash.o(i.FLASH_EraseAllBank1Pages), (56 bytes).
    Removing stm32f10x_flash.o(i.FLASH_EraseAllPages), (56 bytes).
    Removing stm32f10x_flash.o(i.FLASH_EraseOptionBytes), (124 bytes).
    Removing stm32f10x_flash.o(i.FLASH_GetFlagStatus), (32 bytes).
    Removing stm32f10x_flash.o(i.FLASH_GetPrefetchBufferStatus), (20 bytes).
    Removing stm32f10x_flash.o(i.FLASH_GetReadOutProtectionStatus), (20 bytes).
    Removing stm32f10x_flash.o(i.FLASH_GetStatus), (40 bytes).
    Removing stm32f10x_flash.o(i.FLASH_GetUserOptionByte), (12 bytes).
    Removing stm32f10x_flash.o(i.FLASH_GetWriteProtectionOptionByte), (12 bytes).
    Removing stm32f10x_flash.o(i.FLASH_HalfCycleAccessCmd), (24 bytes).
    Removing stm32f10x_flash.o(i.FLASH_ITConfig), (24 bytes).
    Removing stm32f10x_flash.o(i.FLASH_LockBank1), (16 bytes).
    Removing stm32f10x_flash.o(i.FLASH_PrefetchBufferCmd), (24 bytes).
    Removing stm32f10x_flash.o(i.FLASH_ProgramOptionByteData), (76 bytes).
    Removing stm32f10x_flash.o(i.FLASH_ReadOutProtection), (136 bytes).
    Removing stm32f10x_flash.o(i.FLASH_SetLatency), (20 bytes).
    Removing stm32f10x_flash.o(i.FLASH_UnlockBank1), (24 bytes).
    Removing stm32f10x_flash.o(i.FLASH_UserOptionByteConfig), (96 bytes).
    Removing stm32f10x_flash.o(i.FLASH_WaitForLastBank1Operation), (34 bytes).
    Removing debug_usart.o(i.usart_init), (112 bytes).
    Removing bf_status_mini_math.o(i.SelectSort), (102 bytes).
    Removing bf_status_mini_math.o(i.VariableParameter), (72 bytes).
    Removing bf_status_mini_filter.o(i.Least_Square_Calc), (196 bytes).
    Removing bf_status_mini_filter.o(i.Least_Square_push), (68 bytes).
    Removing bf_status_mini_filter.o(i.lpf2pApply), (108 bytes).
    Removing bf_status_mini_filter.o(i.lpf2pInit), (16 bytes).
    Removing bf_status_mini_filter.o(i.lpf2pSetCutoffFreq), (200 bytes).
    Removing bf_status_mini_filter.o(.data), (40 bytes).
    Removing bf_status_mini_filter.o(.data), (40 bytes).
    Removing kalman_filter.o(i.kalmanUpdate), (316 bytes).
    Removing kalman_filter.o(.data), (24 bytes).
    Removing hw_config.o(i.Enter_LowPowerMode), (12 bytes).
    Removing hw_config.o(i.fgetc), (20 bytes).
    Removing hw_config.o(.bss), (16 bytes).
    Removing hw_config.o(.data), (1 bytes).
    Removing usb_pwr.o(i.PowerOff), (32 bytes).
    Removing usb_init.o(.data), (2 bytes).
    Removing usb_int.o(i.CTR_HP), (128 bytes).
    Removing usb_queue.o(i.QUEUE_PacketCharSplit), (114 bytes).
    Removing usb_queue.o(i.QUEUE_PacketDoubleEndCharSplit), (130 bytes).
    Removing usb_queue.o(i.QUEUE_PacketLengthGet), (40 bytes).
    Removing usb_queue.o(i.QUEUE_PacketStartEndCharSplit), (196 bytes).
    Removing usb_queue.o(i.QUEUE_PacketStartEndDifferentCharSplit), (180 bytes).
    Removing usb_queue.o(i.QUEUE_StructCountGet), (34 bytes).
    Removing usb_queue.o(i.QUEUE_StructCreate), (20 bytes).
    Removing usb_queue.o(i.QUEUE_StructIn), (68 bytes).
    Removing usb_queue.o(i.QUEUE_StructOut), (80 bytes).
    Removing usb_regs.o(i.ClearEPDoubleBuff), (32 bytes).
    Removing usb_regs.o(i.ClearEP_CTR_RX), (28 bytes).
    Removing usb_regs.o(i.ClearEP_CTR_TX), (28 bytes).
    Removing usb_regs.o(i.ClearEP_KIND), (32 bytes).
    Removing usb_regs.o(i.FreeUserBuffer), (52 bytes).
    Removing usb_regs.o(i.GetBTABLE), (12 bytes).
    Removing usb_regs.o(i.GetCNTR), (12 bytes).
    Removing usb_regs.o(i.GetDADDR), (12 bytes).
    Removing usb_regs.o(i.GetENDPOINT), (20 bytes).
    Removing usb_regs.o(i.GetEPAddress), (20 bytes).
    Removing usb_regs.o(i.GetEPDblBuf0Addr), (28 bytes).
    Removing usb_regs.o(i.GetEPDblBuf0Count), (32 bytes).
    Removing usb_regs.o(i.GetEPDblBuf1Addr), (32 bytes).
    Removing usb_regs.o(i.GetEPDblBuf1Count), (32 bytes).
    Removing usb_regs.o(i.GetEPDblBufDir), (60 bytes).
    Removing usb_regs.o(i.GetEPRxStatus), (24 bytes).
    Removing usb_regs.o(i.GetEPTxCount), (32 bytes).
    Removing usb_regs.o(i.GetEPTxStatus), (24 bytes).
    Removing usb_regs.o(i.GetEPType), (24 bytes).
    Removing usb_regs.o(i.GetFNR), (12 bytes).
    Removing usb_regs.o(i.GetISTR), (12 bytes).
    Removing usb_regs.o(i.GetRxStallStatus), (28 bytes).
    Removing usb_regs.o(i.GetTxStallStatus), (28 bytes).
    Removing usb_regs.o(i.SetCNTR), (12 bytes).
    Removing usb_regs.o(i.SetDADDR), (12 bytes).
    Removing usb_regs.o(i.SetDouBleBuffEPStall), (44 bytes).
    Removing usb_regs.o(i.SetENDPOINT), (16 bytes).
    Removing usb_regs.o(i.SetEPAddress), (36 bytes).
    Removing usb_regs.o(i.SetEPCountRxReg), (38 bytes).
    Removing usb_regs.o(i.SetEPDblBuf0Addr), (32 bytes).
    Removing usb_regs.o(i.SetEPDblBuf0Count), (92 bytes).
    Removing usb_regs.o(i.SetEPDblBuf1Addr), (32 bytes).
    Removing usb_regs.o(i.SetEPDblBuf1Count), (92 bytes).
    Removing usb_regs.o(i.SetEPDblBuffAddr), (52 bytes).
    Removing usb_regs.o(i.SetEPDblBuffCount), (164 bytes).
    Removing usb_regs.o(i.SetEPDoubleBuff), (32 bytes).
    Removing usb_regs.o(i.SetEP_KIND), (32 bytes).
    Removing usb_regs.o(i.SetISTR), (12 bytes).
    Removing usb_regs.o(i.Set_Status_Out), (32 bytes).
    Removing usb_regs.o(i.ToWord), (6 bytes).
    Removing usb_regs.o(i.ToggleDTOG_RX), (32 bytes).
    Removing usb_regs.o(i.ToggleDTOG_TX), (32 bytes).
    Removing usb_sil.o(i.USB_SIL_Write), (38 bytes).
    Removing port.o(i.vPortEndScheduler), (2 bytes).
    Removing queue.o(i.uxQueueMessagesWaiting), (18 bytes).
    Removing queue.o(i.uxQueueMessagesWaitingFromISR), (4 bytes).
    Removing queue.o(i.uxQueueSpacesAvailable), (22 bytes).
    Removing queue.o(i.vQueueDelete), (4 bytes).
    Removing queue.o(i.xQueueAddToSet), (34 bytes).
    Removing queue.o(i.xQueueCreateSet), (8 bytes).
    Removing queue.o(i.xQueueGenericSendFromISR), (120 bytes).
    Removing queue.o(i.xQueueGiveFromISR), (98 bytes).
    Removing queue.o(i.xQueueGiveMutexRecursive), (42 bytes).
    Removing queue.o(i.xQueueIsQueueEmptyFromISR), (12 bytes).
    Removing queue.o(i.xQueueIsQueueFullFromISR), (16 bytes).
    Removing queue.o(i.xQueuePeekFromISR), (44 bytes).
    Removing queue.o(i.xQueueReceiveFromISR), (100 bytes).
    Removing queue.o(i.xQueueRemoveFromSet), (34 bytes).
    Removing queue.o(i.xQueueSelectFromSet), (18 bytes).
    Removing queue.o(i.xQueueSelectFromSetFromISR), (18 bytes).
    Removing queue.o(i.xQueueTakeMutexRecursive), (50 bytes).
    Removing tasks.o(i.pcTaskGetName), (16 bytes).
    Removing tasks.o(i.prvTaskIsTaskSuspended), (32 bytes).
    Removing tasks.o(i.ulTaskNotifyTake), (104 bytes).
    Removing tasks.o(i.uxTaskGetNumberOfTasks), (12 bytes).
    Removing tasks.o(i.uxTaskPriorityGet), (28 bytes).
    Removing tasks.o(i.uxTaskPriorityGetFromISR), (36 bytes).
    Removing tasks.o(i.uxTaskResetEventItemValue), (24 bytes).
    Removing tasks.o(i.vTaskEndScheduler), (28 bytes).
    Removing tasks.o(i.vTaskNotifyGiveFromISR), (140 bytes).
    Removing tasks.o(i.vTaskPlaceOnUnorderedEventList), (44 bytes).
    Removing tasks.o(i.vTaskPrioritySet), (180 bytes).
    Removing tasks.o(i.vTaskResume), (108 bytes).
    Removing tasks.o(i.vTaskSuspend), (156 bytes).
    Removing tasks.o(i.xTaskGenericNotify), (164 bytes).
    Removing tasks.o(i.xTaskGenericNotifyFromISR), (188 bytes).
    Removing tasks.o(i.xTaskGetCurrentTaskHandle), (12 bytes).
    Removing tasks.o(i.xTaskGetTickCountFromISR), (12 bytes).
    Removing tasks.o(i.xTaskNotifyStateClear), (48 bytes).
    Removing tasks.o(i.xTaskNotifyWait), (140 bytes).
    Removing tasks.o(i.xTaskRemoveFromUnorderedEventList), (80 bytes).
    Removing tasks.o(i.xTaskResumeFromISR), (116 bytes).
    Removing heap_2.o(i.vPortInitialiseBlocks), (2 bytes).
    Removing event_groups.o(i.prvTestWaitCondition), (20 bytes).
    Removing event_groups.o(i.vEventGroupClearBitsCallback), (4 bytes).
    Removing event_groups.o(i.vEventGroupDelete), (44 bytes).
    Removing event_groups.o(i.vEventGroupSetBitsCallback), (4 bytes).
    Removing event_groups.o(i.xEventGroupClearBits), (26 bytes).
    Removing event_groups.o(i.xEventGroupCreate), (26 bytes).
    Removing event_groups.o(i.xEventGroupGetBitsFromISR), (26 bytes).
    Removing event_groups.o(i.xEventGroupSetBits), (100 bytes).
    Removing event_groups.o(i.xEventGroupSync), (136 bytes).
    Removing event_groups.o(i.xEventGroupWaitBits), (188 bytes).
    Removing dfixul.o(.text), (48 bytes).
    Removing cdcmple.o(.text), (48 bytes).

357 unused section(s) (total 13531 bytes) removed from the image.

==============================================================================

Image Symbol Table

    Local Symbols

    Symbol Name                              Value     Ov Type        Size  Object(Section)

    ../clib/../cmprslib/zerorunl2.c          0x00000000   Number         0  __dczerorl2.o ABSOLUTE
    ../clib/microlib/division.c              0x00000000   Number         0  uidiv.o ABSOLUTE
    ../clib/microlib/division.c              0x00000000   Number         0  ldiv.o ABSOLUTE
    ../clib/microlib/division.c              0x00000000   Number         0  uldiv.o ABSOLUTE
    ../clib/microlib/errno.c                 0x00000000   Number         0  errno.o ABSOLUTE
    ../clib/microlib/init/entry.s            0x00000000   Number         0  entry11b.o ABSOLUTE
    ../clib/microlib/init/entry.s            0x00000000   Number         0  entry.o ABSOLUTE
    ../clib/microlib/init/entry.s            0x00000000   Number         0  entry9b.o ABSOLUTE
    ../clib/microlib/init/entry.s            0x00000000   Number         0  entry10a.o ABSOLUTE
    ../clib/microlib/init/entry.s            0x00000000   Number         0  entry11a.o ABSOLUTE
    ../clib/microlib/init/entry.s            0x00000000   Number         0  entry10b.o ABSOLUTE
    ../clib/microlib/init/entry.s            0x00000000   Number         0  entry2.o ABSOLUTE
    ../clib/microlib/init/entry.s            0x00000000   Number         0  entry5.o ABSOLUTE
    ../clib/microlib/init/entry.s            0x00000000   Number         0  entry7a.o ABSOLUTE
    ../clib/microlib/init/entry.s            0x00000000   Number         0  entry7b.o ABSOLUTE
    ../clib/microlib/init/entry.s            0x00000000   Number         0  entry8a.o ABSOLUTE
    ../clib/microlib/init/entry.s            0x00000000   Number         0  entry8b.o ABSOLUTE
    ../clib/microlib/init/entry.s            0x00000000   Number         0  entry9a.o ABSOLUTE
    ../clib/microlib/longlong.c              0x00000000   Number         0  llsshr.o ABSOLUTE
    ../clib/microlib/longlong.c              0x00000000   Number         0  llshl.o ABSOLUTE
    ../clib/microlib/longlong.c              0x00000000   Number         0  llushr.o ABSOLUTE
    ../clib/microlib/printf/printf.c         0x00000000   Number         0  printf3.o ABSOLUTE
    ../clib/microlib/printf/printf.c         0x00000000   Number         0  printfa.o ABSOLUTE
    ../clib/microlib/printf/printf.c         0x00000000   Number         0  printf4.o ABSOLUTE
    ../clib/microlib/printf/printf.c         0x00000000   Number         0  printf5.o ABSOLUTE
    ../clib/microlib/printf/printf.c         0x00000000   Number         0  printf6.o ABSOLUTE
    ../clib/microlib/printf/printf.c         0x00000000   Number         0  printf7.o ABSOLUTE
    ../clib/microlib/printf/printf.c         0x00000000   Number         0  printf8.o ABSOLUTE
    ../clib/microlib/printf/printf.c         0x00000000   Number         0  printfb.o ABSOLUTE
    ../clib/microlib/printf/printf.c         0x00000000   Number         0  printf0.o ABSOLUTE
    ../clib/microlib/printf/printf.c         0x00000000   Number         0  printf1.o ABSOLUTE
    ../clib/microlib/printf/printf.c         0x00000000   Number         0  printf2.o ABSOLUTE
    ../clib/microlib/printf/stubs.s          0x00000000   Number         0  stubs.o ABSOLUTE
    ../clib/microlib/stdio/streams.c         0x00000000   Number         0  stdout.o ABSOLUTE
    ../clib/microlib/string/memcpy.c         0x00000000   Number         0  memcpyb.o ABSOLUTE
    ../clib/microlib/string/memcpy.c         0x00000000   Number         0  memcpya.o ABSOLUTE
    ../clib/microlib/stubs.s                 0x00000000   Number         0  iusefp.o ABSOLUTE
    ../fplib/microlib/d2f.c                  0x00000000   Number         0  d2f.o ABSOLUTE
    ../fplib/microlib/f2d.c                  0x00000000   Number         0  f2d.o ABSOLUTE
    ../fplib/microlib/fpadd.c                0x00000000   Number         0  dadd.o ABSOLUTE
    ../fplib/microlib/fpadd.c                0x00000000   Number         0  fadd.o ABSOLUTE
    ../fplib/microlib/fpdiv.c                0x00000000   Number         0  ddiv.o ABSOLUTE
    ../fplib/microlib/fpdiv.c                0x00000000   Number         0  fdiv.o ABSOLUTE
    ../fplib/microlib/fpepilogue.c           0x00000000   Number         0  depilogue.o ABSOLUTE
    ../fplib/microlib/fpepilogue.c           0x00000000   Number         0  fepilogue.o ABSOLUTE
    ../fplib/microlib/fpfix.c                0x00000000   Number         0  ffixui.o ABSOLUTE
    ../fplib/microlib/fpfix.c                0x00000000   Number         0  dfixul.o ABSOLUTE
    ../fplib/microlib/fpfix.c                0x00000000   Number         0  ffixi.o ABSOLUTE
    ../fplib/microlib/fpflt.c                0x00000000   Number         0  fflti.o ABSOLUTE
    ../fplib/microlib/fpflt.c                0x00000000   Number         0  dflti.o ABSOLUTE
    ../fplib/microlib/fpflt.c                0x00000000   Number         0  ffltui.o ABSOLUTE
    ../fplib/microlib/fpmul.c                0x00000000   Number         0  dmul.o ABSOLUTE
    ../fplib/microlib/fpmul.c                0x00000000   Number         0  fmul.o ABSOLUTE
    ../fplib/microlib/fprnd.c                0x00000000   Number         0  frnd.o ABSOLUTE
    ../fplib/microlib/fpscalb.c              0x00000000   Number         0  fscalb.o ABSOLUTE
    ../fplib/microlib/fpscalb.c              0x00000000   Number         0  dscalb.o ABSOLUTE
    ../fplib/microlib/fpsqrt.c               0x00000000   Number         0  fsqrt.o ABSOLUTE
    ../fplib/microlib/fpsqrt.c               0x00000000   Number         0  dsqrt.o ABSOLUTE
    ../mathlib/asinf.c                       0x00000000   Number         0  asinf.o ABSOLUTE
    ../mathlib/asinf.c                       0x00000000   Number         0  asinf_x.o ABSOLUTE
    ../mathlib/atan2f.c                      0x00000000   Number         0  atan2f_x.o ABSOLUTE
    ../mathlib/atan2f.c                      0x00000000   Number         0  atan2f.o ABSOLUTE
    ../mathlib/cosf.c                        0x00000000   Number         0  cosf.o ABSOLUTE
    ../mathlib/cosf.c                        0x00000000   Number         0  cosf_x.o ABSOLUTE
    ../mathlib/dunder.c                      0x00000000   Number         0  dunder.o ABSOLUTE
    ../mathlib/fpclassify.c                  0x00000000   Number         0  fpclassify.o ABSOLUTE
    ../mathlib/fpclassifyf.c                 0x00000000   Number         0  fpclassifyf.o ABSOLUTE
    ../mathlib/funder.c                      0x00000000   Number         0  funder.o ABSOLUTE
    ../mathlib/poly.c                        0x00000000   Number         0  poly.o ABSOLUTE
    ../mathlib/pow.c                         0x00000000   Number         0  pow.o ABSOLUTE
    ../mathlib/pow.c                         0x00000000   Number         0  pow_x.o ABSOLUTE
    ../mathlib/qnan.c                        0x00000000   Number         0  qnan.o ABSOLUTE
    ../mathlib/rredf.c                       0x00000000   Number         0  rredf.o ABSOLUTE
    ../mathlib/sinf.c                        0x00000000   Number         0  sinf_x.o ABSOLUTE
    ../mathlib/sinf.c                        0x00000000   Number         0  sinf.o ABSOLUTE
    ../mathlib/sqrt.c                        0x00000000   Number         0  sqrt_x.o ABSOLUTE
    ../mathlib/sqrt.c                        0x00000000   Number         0  sqrt.o ABSOLUTE
    ../mathlib/sqrtf.c                       0x00000000   Number         0  sqrtf_x.o ABSOLUTE
    ../mathlib/sqrtf.c                       0x00000000   Number         0  sqrtf.o ABSOLUTE
    ../mathlib/tanf.c                        0x00000000   Number         0  tanf_x.o ABSOLUTE
    ../mathlib/tanf.c                        0x00000000   Number         0  tanf.o ABSOLUTE
    ..\..\FreeRTOS\src\Mem\heap_2.c          0x00000000   Number         0  heap_2.o ABSOLUTE
    ..\..\FreeRTOS\src\event_groups.c        0x00000000   Number         0  event_groups.o ABSOLUTE
    ..\..\FreeRTOS\src\list.c                0x00000000   Number         0  list.o ABSOLUTE
    ..\..\FreeRTOS\src\port.c                0x00000000   Number         0  port.o ABSOLUTE
    ..\..\FreeRTOS\src\queue.c               0x00000000   Number         0  queue.o ABSOLUTE
    ..\..\FreeRTOS\src\tasks.c               0x00000000   Number         0  tasks.o ABSOLUTE
    ..\..\Libraries\CMSIS\core_cm3.c         0x00000000   Number         0  core_cm3.o ABSOLUTE
    ..\..\Libraries\CMSIS\startup\startup_stm32f10x_md.s 0x00000000   Number         0  startup_stm32f10x_md.o ABSOLUTE
    ..\..\Libraries\CMSIS\system_stm32f10x.c 0x00000000   Number         0  system_stm32f10x.o ABSOLUTE
    ..\..\Libraries\Devices\src\battery.c    0x00000000   Number         0  battery.o ABSOLUTE
    ..\..\Libraries\Devices\src\bmp280.c     0x00000000   Number         0  bmp280.o ABSOLUTE
    ..\..\Libraries\Devices\src\led.c        0x00000000   Number         0  led.o ABSOLUTE
    ..\..\Libraries\Devices\src\motor.c      0x00000000   Number         0  motor.o ABSOLUTE
    ..\..\Libraries\Devices\src\mpu6050.c    0x00000000   Number         0  mpu6050.o ABSOLUTE
    ..\..\Libraries\Devices\src\nrf24l01.c   0x00000000   Number         0  nrf24l01.o ABSOLUTE
    ..\..\Libraries\Lib\src\misc.c           0x00000000   Number         0  misc.o ABSOLUTE
    ..\..\Libraries\Lib\src\stm32f10x_adc.c  0x00000000   Number         0  stm32f10x_adc.o ABSOLUTE
    ..\..\Libraries\Lib\src\stm32f10x_exti.c 0x00000000   Number         0  stm32f10x_exti.o ABSOLUTE
    ..\..\Libraries\Lib\src\stm32f10x_flash.c 0x00000000   Number         0  stm32f10x_flash.o ABSOLUTE
    ..\..\Libraries\Lib\src\stm32f10x_gpio.c 0x00000000   Number         0  stm32f10x_gpio.o ABSOLUTE
    ..\..\Libraries\Lib\src\stm32f10x_i2c.c  0x00000000   Number         0  stm32f10x_i2c.o ABSOLUTE
    ..\..\Libraries\Lib\src\stm32f10x_pwr.c  0x00000000   Number         0  stm32f10x_pwr.o ABSOLUTE
    ..\..\Libraries\Lib\src\stm32f10x_rcc.c  0x00000000   Number         0  stm32f10x_rcc.o ABSOLUTE
    ..\..\Libraries\Lib\src\stm32f10x_spi.c  0x00000000   Number         0  stm32f10x_spi.o ABSOLUTE
    ..\..\Libraries\Lib\src\stm32f10x_tim.c  0x00000000   Number         0  stm32f10x_tim.o ABSOLUTE
    ..\..\Libraries\Lib\src\stm32f10x_usart.c 0x00000000   Number         0  stm32f10x_usart.o ABSOLUTE
    ..\..\Libraries\Lib\src\stm32fx_delay.c  0x00000000   Number         0  stm32fx_delay.o ABSOLUTE
    ..\..\Libraries\USB\lib\hw_config.c      0x00000000   Number         0  hw_config.o ABSOLUTE
    ..\..\Libraries\USB\lib\usb_desc.c       0x00000000   Number         0  usb_desc.o ABSOLUTE
    ..\..\Libraries\USB\lib\usb_endp.c       0x00000000   Number         0  usb_endp.o ABSOLUTE
    ..\..\Libraries\USB\lib\usb_istr.c       0x00000000   Number         0  usb_istr.o ABSOLUTE
    ..\..\Libraries\USB\lib\usb_it.c         0x00000000   Number         0  usb_it.o ABSOLUTE
    ..\..\Libraries\USB\lib\usb_prop.c       0x00000000   Number         0  usb_prop.o ABSOLUTE
    ..\..\Libraries\USB\lib\usb_pwr.c        0x00000000   Number         0  usb_pwr.o ABSOLUTE
    ..\..\Libraries\USB\src\usb_core.c       0x00000000   Number         0  usb_core.o ABSOLUTE
    ..\..\Libraries\USB\src\usb_init.c       0x00000000   Number         0  usb_init.o ABSOLUTE
    ..\..\Libraries\USB\src\usb_int.c        0x00000000   Number         0  usb_int.o ABSOLUTE
    ..\..\Libraries\USB\src\usb_mem.c        0x00000000   Number         0  usb_mem.o ABSOLUTE
    ..\..\Libraries\USB\src\usb_queue.c      0x00000000   Number         0  usb_queue.o ABSOLUTE
    ..\..\Libraries\USB\src\usb_regs.c       0x00000000   Number         0  usb_regs.o ABSOLUTE
    ..\..\Libraries\USB\src\usb_sil.c        0x00000000   Number         0  usb_sil.o ABSOLUTE
    ..\..\User\main.c                        0x00000000   Number         0  main.o ABSOLUTE
    ..\..\User\stm32f10x_it.c                0x00000000   Number         0  stm32f10x_it.o ABSOLUTE
    ..\..\User\x-quadrotor\src\BF_Status_Mini_Ctrl.c 0x00000000   Number         0  bf_status_mini_ctrl.o ABSOLUTE
    ..\..\User\x-quadrotor\src\BF_Status_Mini_Filter.c 0x00000000   Number         0  bf_status_mini_filter.o ABSOLUTE
    ..\..\User\x-quadrotor\src\BF_Status_Mini_Global.c 0x00000000   Number         0  bf_status_mini_global.o ABSOLUTE
    ..\..\User\x-quadrotor\src\BF_Status_Mini_Math.c 0x00000000   Number         0  bf_status_mini_math.o ABSOLUTE
    ..\..\User\x-quadrotor\src\BF_Status_Mini_Param.c 0x00000000   Number         0  bf_status_mini_param.o ABSOLUTE
    ..\..\User\x-quadrotor\src\BF_Status_Mini_RC.c 0x00000000   Number         0  bf_status_mini_rc.o ABSOLUTE
    ..\..\User\x-quadrotor\src\BF_Status_Mini_System.c 0x00000000   Number         0  bf_status_mini_system.o ABSOLUTE
    ..\..\User\x-quadrotor\src\DataScope_DP.C 0x00000000   Number         0  datascope_dp.o ABSOLUTE
    ..\..\User\x-quadrotor\src\IMU.c         0x00000000   Number         0  imu.o ABSOLUTE
    ..\..\User\x-quadrotor\src\app.c         0x00000000   Number         0  app.o ABSOLUTE
    ..\..\User\x-quadrotor\src\debug_usart.c 0x00000000   Number         0  debug_usart.o ABSOLUTE
    ..\..\User\x-quadrotor\src\kalman_filter.c 0x00000000   Number         0  kalman_filter.o ABSOLUTE
    ..\\..\\FreeRTOS\\src\\port.c            0x00000000   Number         0  port.o ABSOLUTE
    ..\\..\\Libraries\\CMSIS\\core_cm3.c     0x00000000   Number         0  core_cm3.o ABSOLUTE
    ..\\..\\Libraries\\Devices\\src\\battery.c 0x00000000   Number         0  battery.o ABSOLUTE
    cdcmple.s                                0x00000000   Number         0  cdcmple.o ABSOLUTE
    cdrcmple.s                               0x00000000   Number         0  cdrcmple.o ABSOLUTE
    cfcmple.s                                0x00000000   Number         0  cfcmple.o ABSOLUTE
    cfrcmple.s                               0x00000000   Number         0  cfrcmple.o ABSOLUTE
    dc.s                                     0x00000000   Number         0  dc.o ABSOLUTE
    handlers.s                               0x00000000   Number         0  handlers.o ABSOLUTE
    init.s                                   0x00000000   Number         0  init.o ABSOLUTE
    RESET                                    0x08003400   Section      236  startup_stm32f10x_md.o(RESET)
    .ARM.Collect$$$$00000000                 0x080034ec   Section        0  entry.o(.ARM.Collect$$$$00000000)
    .ARM.Collect$$$$00000001                 0x080034ec   Section        4  entry2.o(.ARM.Collect$$$$00000001)
    .ARM.Collect$$$$00000004                 0x080034f0   Section        4  entry5.o(.ARM.Collect$$$$00000004)
    .ARM.Collect$$$$00000008                 0x080034f4   Section        0  entry7b.o(.ARM.Collect$$$$00000008)
    .ARM.Collect$$$$0000000A                 0x080034f4   Section        0  entry8b.o(.ARM.Collect$$$$0000000A)
    .ARM.Collect$$$$0000000B                 0x080034f4   Section        8  entry9a.o(.ARM.Collect$$$$0000000B)
    .ARM.Collect$$$$0000000D                 0x080034fc   Section        0  entry10a.o(.ARM.Collect$$$$0000000D)
    .ARM.Collect$$$$0000000F                 0x080034fc   Section        0  entry11a.o(.ARM.Collect$$$$0000000F)
    .ARM.Collect$$$$00002712                 0x080034fc   Section        4  entry2.o(.ARM.Collect$$$$00002712)
    __lit__00000000                          0x080034fc   Data           4  entry2.o(.ARM.Collect$$$$00002712)
    .emb_text                                0x08003500   Section       32  core_cm3.o(.emb_text)
    .emb_text                                0x08003520   Section       24  battery.o(.emb_text)
    .emb_text                                0x08003538   Section      150  port.o(.emb_text)
    .text                                    0x080035d0   Section       36  startup_stm32f10x_md.o(.text)
    .text                                    0x080035f4   Section        0  ldiv.o(.text)
    .text                                    0x08003656   Section        0  memcpya.o(.text)
    .text                                    0x0800367a   Section        0  fadd.o(.text)
    .text                                    0x0800372a   Section        0  fmul.o(.text)
    .text                                    0x0800378e   Section        0  fdiv.o(.text)
    .text                                    0x0800380a   Section        0  fscalb.o(.text)
    .text                                    0x08003822   Section        0  dadd.o(.text)
    .text                                    0x08003970   Section        0  dmul.o(.text)
    .text                                    0x08003a54   Section        0  ddiv.o(.text)
    .text                                    0x08003b32   Section        0  fflti.o(.text)
    .text                                    0x08003b44   Section        0  ffltui.o(.text)
    .text                                    0x08003b4e   Section        0  ffixi.o(.text)
    .text                                    0x08003b80   Section        0  ffixui.o(.text)
    .text                                    0x08003ba8   Section        0  f2d.o(.text)
    .text                                    0x08003bce   Section        0  d2f.o(.text)
    .text                                    0x08003c08   Section       20  cfcmple.o(.text)
    .text                                    0x08003c1c   Section       20  cfrcmple.o(.text)
    .text                                    0x08003c30   Section        0  uidiv.o(.text)
    .text                                    0x08003c5c   Section        0  uldiv.o(.text)
    .text                                    0x08003cbe   Section        0  llshl.o(.text)
    .text                                    0x08003cdc   Section        0  llsshr.o(.text)
    .text                                    0x08003d00   Section        0  iusefp.o(.text)
    .text                                    0x08003d00   Section        0  fepilogue.o(.text)
    .text                                    0x08003d6e   Section        0  frnd.o(.text)
    .text                                    0x08003daa   Section        0  depilogue.o(.text)
    .text                                    0x08003e64   Section        0  dscalb.o(.text)
    .text                                    0x08003e92   Section        0  dflti.o(.text)
    .text                                    0x08003eb4   Section       48  cdrcmple.o(.text)
    .text                                    0x08003ee4   Section       36  init.o(.text)
    .text                                    0x08003f08   Section        0  llushr.o(.text)
    .text                                    0x08003f28   Section        0  fsqrt.o(.text)
    .text                                    0x08003f86   Section        0  dsqrt.o(.text)
    .text                                    0x08004028   Section        0  __dczerorl2.o(.text)
    i.ADC_Cmd                                0x0800407e   Section        0  stm32f10x_adc.o(i.ADC_Cmd)
    i.ADC_GetCalibrationStatus               0x08004092   Section        0  stm32f10x_adc.o(i.ADC_GetCalibrationStatus)
    i.ADC_GetConversionValue                 0x080040a0   Section        0  stm32f10x_adc.o(i.ADC_GetConversionValue)
    i.ADC_GetFlagStatus                      0x080040a6   Section        0  stm32f10x_adc.o(i.ADC_GetFlagStatus)
    i.ADC_GetResetCalibrationStatus          0x080040b4   Section        0  stm32f10x_adc.o(i.ADC_GetResetCalibrationStatus)
    i.ADC_Init                               0x080040c4   Section        0  stm32f10x_adc.o(i.ADC_Init)
    i.ADC_RegularChannelConfig               0x0800410c   Section        0  stm32f10x_adc.o(i.ADC_RegularChannelConfig)
    i.ADC_ResetCalibration                   0x08004180   Section        0  stm32f10x_adc.o(i.ADC_ResetCalibration)
    i.ADC_SoftwareStartConvCmd               0x0800418a   Section        0  stm32f10x_adc.o(i.ADC_SoftwareStartConvCmd)
    i.ADC_StartCalibration                   0x0800419e   Section        0  stm32f10x_adc.o(i.ADC_StartCalibration)
    i.AltControl                             0x080041a8   Section        0  bf_status_mini_ctrl.o(i.AltControl)
    AltControl                               0x080041a9   Thumb Code   210  bf_status_mini_ctrl.o(i.AltControl)
    i.Angle_Get                              0x080042a0   Section        0  imu.o(i.Angle_Get)
    i.BSP_init                               0x080042c0   Section        0  bf_status_mini_system.o(i.BSP_init)
    i.BusFault_Handler                       0x080042e8   Section        0  stm32f10x_it.o(i.BusFault_Handler)
    i.ByteSwap                               0x080042ea   Section        0  usb_regs.o(i.ByteSwap)
    i.CTR_LP                                 0x080042f4   Section        0  usb_int.o(i.CTR_LP)
    i.Calculate_Target                       0x0800444c   Section        0  bf_status_mini_ctrl.o(i.Calculate_Target)
    Calculate_Target                         0x0800444d   Thumb Code   490  bf_status_mini_ctrl.o(i.Calculate_Target)
    i.ClearDTOG_RX                           0x08004684   Section        0  usb_regs.o(i.ClearDTOG_RX)
    i.ClearDTOG_TX                           0x080046ac   Section        0  usb_regs.o(i.ClearDTOG_TX)
    i.Clear_Status_Out                       0x080046d4   Section        0  usb_regs.o(i.Clear_Status_Out)
    i.Control                                0x080046f4   Section        0  bf_status_mini_ctrl.o(i.Control)
    i.CorePID                                0x08004804   Section        0  bf_status_mini_ctrl.o(i.CorePID)
    CorePID                                  0x08004805   Thumb Code   274  bf_status_mini_ctrl.o(i.CorePID)
    i.DataScope_Data_Generate                0x0800493c   Section        0  datascope_dp.o(i.DataScope_Data_Generate)
    DataScope_Data_Generate                  0x0800493d   Thumb Code   124  datascope_dp.o(i.DataScope_Data_Generate)
    i.DataScope_Get_Channel_Data             0x080049bc   Section        0  datascope_dp.o(i.DataScope_Get_Channel_Data)
    DataScope_Get_Channel_Data               0x080049bd   Thumb Code    78  datascope_dp.o(i.DataScope_Get_Channel_Data)
    i.DataStageIn                            0x08004a10   Section        0  usb_core.o(i.DataStageIn)
    DataStageIn                              0x08004a11   Thumb Code   156  usb_core.o(i.DataStageIn)
    i.DataStageOut                           0x08004ac4   Section        0  usb_core.o(i.DataStageOut)
    DataStageOut                             0x08004ac5   Thumb Code   142  usb_core.o(i.DataStageOut)
    i.Data_Setup0                            0x08004b68   Section        0  usb_core.o(i.Data_Setup0)
    Data_Setup0                              0x08004b69   Thumb Code   376  usb_core.o(i.Data_Setup0)
    i.DebugMon_Handler                       0x08004d04   Section        0  stm32f10x_it.o(i.DebugMon_Handler)
    i.DelayMs                                0x08004d06   Section        0  stm32fx_delay.o(i.DelayMs)
    i.DelayUs                                0x08004d16   Section        0  stm32fx_delay.o(i.DelayUs)
    i.EP1_IN_Callback                        0x08004d30   Section        0  usb_endp.o(i.EP1_IN_Callback)
    i.EP3_OUT_Callback                       0x08004d74   Section        0  usb_endp.o(i.EP3_OUT_Callback)
    i.EXTI_ClearITPendingBit                 0x08004d94   Section        0  stm32f10x_exti.o(i.EXTI_ClearITPendingBit)
    i.EXTI_Init                              0x08004da0   Section        0  stm32f10x_exti.o(i.EXTI_Init)
    i.FLASH_ErasePage                        0x08004e10   Section        0  stm32f10x_flash.o(i.FLASH_ErasePage)
    i.FLASH_GetBank1Status                   0x08004e4c   Section        0  stm32f10x_flash.o(i.FLASH_GetBank1Status)
    i.FLASH_Lock                             0x08004e74   Section        0  stm32f10x_flash.o(i.FLASH_Lock)
    i.FLASH_ProgramHalfWord                  0x08004e84   Section        0  stm32f10x_flash.o(i.FLASH_ProgramHalfWord)
    i.FLASH_ProgramWord                      0x08004eb8   Section        0  stm32f10x_flash.o(i.FLASH_ProgramWord)
    i.FLASH_ReadHalfWord                     0x08004f08   Section        0  stm32f10x_flash.o(i.FLASH_ReadHalfWord)
    i.FLASH_ReadWord                         0x08004f0c   Section        0  stm32f10x_flash.o(i.FLASH_ReadWord)
    i.FLASH_Unlock                           0x08004f10   Section        0  stm32f10x_flash.o(i.FLASH_Unlock)
    i.FLASH_WaitForLastOperation             0x08004f28   Section        0  stm32f10x_flash.o(i.FLASH_WaitForLastOperation)
    i.Flag_Clear                             0x08004f4c   Section        0  bf_status_mini_param.o(i.Flag_Clear)
    i.Float2Byte                             0x08004f8c   Section        0  datascope_dp.o(i.Float2Byte)
    Float2Byte                               0x08004f8d   Thumb Code    20  datascope_dp.o(i.Float2Byte)
    i.GPIO_DeInit                            0x08004fa0   Section        0  stm32f10x_gpio.o(i.GPIO_DeInit)
    i.GPIO_Init                              0x08005054   Section        0  stm32f10x_gpio.o(i.GPIO_Init)
    i.GPIO_PinRemapConfig                    0x080050f0   Section        0  stm32f10x_gpio.o(i.GPIO_PinRemapConfig)
    i.GPIO_QuickInit                         0x08005148   Section        0  stm32f10x_gpio.o(i.GPIO_QuickInit)
    i.GPIO_ReadInputDataBit                  0x08005170   Section        0  stm32f10x_gpio.o(i.GPIO_ReadInputDataBit)
    i.GPIO_ResetBits                         0x0800517e   Section        0  stm32f10x_gpio.o(i.GPIO_ResetBits)
    i.GPIO_SetBits                           0x08005182   Section        0  stm32f10x_gpio.o(i.GPIO_SetBits)
    i.GetEPRxAddr                            0x08005188   Section        0  usb_regs.o(i.GetEPRxAddr)
    i.GetEPRxCount                           0x080051a8   Section        0  usb_regs.o(i.GetEPRxCount)
    i.GetEPTxAddr                            0x080051c8   Section        0  usb_regs.o(i.GetEPTxAddr)
    i.Get_SerialNum                          0x080051e4   Section        0  hw_config.o(i.Get_SerialNum)
    i.HardFault_Handler                      0x08005218   Section        0  stm32f10x_it.o(i.HardFault_Handler)
    i.I2C_Ack                                0x0800521c   Section        0  stm32f10x_i2c.o(i.I2C_Ack)
    i.I2C_INIT                               0x08005248   Section        0  stm32f10x_i2c.o(i.I2C_INIT)
    i.I2C_NoAck                              0x0800529c   Section        0  stm32f10x_i2c.o(i.I2C_NoAck)
    i.I2C_RadeByte                           0x080052c8   Section        0  stm32f10x_i2c.o(i.I2C_RadeByte)
    i.I2C_Read                               0x08005308   Section        0  stm32f10x_i2c.o(i.I2C_Read)
    i.I2C_SendByte                           0x08005364   Section        0  stm32f10x_i2c.o(i.I2C_SendByte)
    i.I2C_Start                              0x0800539c   Section        0  stm32f10x_i2c.o(i.I2C_Start)
    i.I2C_Stop                               0x080053d4   Section        0  stm32f10x_i2c.o(i.I2C_Stop)
    i.I2C_WaitAck                            0x08005400   Section        0  stm32f10x_i2c.o(i.I2C_WaitAck)
    i.I2C_delay                              0x08005440   Section        0  stm32f10x_i2c.o(i.I2C_delay)
    i.IIR_I_Filter                           0x08005454   Section        0  bf_status_mini_filter.o(i.IIR_I_Filter)
    i.In0_Process                            0x08005510   Section        0  usb_core.o(i.In0_Process)
    i.IntToUnicode                           0x0800556c   Section        0  hw_config.o(i.IntToUnicode)
    IntToUnicode                             0x0800556d   Thumb Code    54  hw_config.o(i.IntToUnicode)
    i.IntegralClear                          0x080055a4   Section        0  bf_status_mini_ctrl.o(i.IntegralClear)
    IntegralClear                            0x080055a5   Thumb Code    28  bf_status_mini_ctrl.o(i.IntegralClear)
    i.Jump_To_IAP                            0x080055c4   Section        0  bf_status_mini_system.o(i.Jump_To_IAP)
    i.LPF_1st                                0x08005630   Section        0  bf_status_mini_filter.o(i.LPF_1st)
    i.Leave_LowPowerMode                     0x0800565c   Section        0  hw_config.o(i.Leave_LowPowerMode)
    i.MPU6050_Read                           0x08005678   Section        0  mpu6050.o(i.MPU6050_Read)
    i.MemManage_Handler                      0x08005824   Section        0  stm32f10x_it.o(i.MemManage_Handler)
    i.MotorOutPut                            0x08005828   Section        0  bf_status_mini_ctrl.o(i.MotorOutPut)
    MotorOutPut                              0x08005829   Thumb Code   238  bf_status_mini_ctrl.o(i.MotorOutPut)
    i.Motor_Stop                             0x0800592c   Section        0  motor.o(i.Motor_Stop)
    i.NMI_Handler                            0x0800593e   Section        0  stm32f10x_it.o(i.NMI_Handler)
    i.NOP_Process                            0x08005940   Section        0  usb_core.o(i.NOP_Process)
    i.NRF_Init                               0x08005944   Section        0  nrf24l01.o(i.NRF_Init)
    i.NRF_RX_Mode                            0x08005a34   Section        0  nrf24l01.o(i.NRF_RX_Mode)
    i.NRF_Rx_Dat                             0x08005a54   Section        0  nrf24l01.o(i.NRF_Rx_Dat)
    i.NRF_SETUP                              0x08005ac0   Section        0  nrf24l01.o(i.NRF_SETUP)
    NRF_SETUP                                0x08005ac1   Thumb Code    96  nrf24l01.o(i.NRF_SETUP)
    i.NRF_TX_Mode                            0x08005b28   Section        0  nrf24l01.o(i.NRF_TX_Mode)
    i.NRF_Tx_Dat                             0x08005b50   Section        0  nrf24l01.o(i.NRF_Tx_Dat)
    i.NVIC_DeInit                            0x08005bb8   Section        0  bf_status_mini_system.o(i.NVIC_DeInit)
    i.NVIC_Init                              0x08005be4   Section        0  misc.o(i.NVIC_Init)
    i.NVIC_PriorityGroupConfig               0x08005c48   Section        0  misc.o(i.NVIC_PriorityGroupConfig)
    i.NVIC_SetVectorTable                    0x08005c5c   Section        0  misc.o(i.NVIC_SetVectorTable)
    i.NoData_Setup0                          0x08005c70   Section        0  usb_core.o(i.NoData_Setup0)
    NoData_Setup0                            0x08005c71   Thumb Code   190  usb_core.o(i.NoData_Setup0)
    i.Out0_Process                           0x08005d44   Section        0  usb_core.o(i.Out0_Process)
    i.PMAToUserBufferCopy                    0x08005d8c   Section        0  usb_mem.o(i.PMAToUserBufferCopy)
    i.PendSV_Handler                         0x08005dac   Section        0  stm32f10x_it.o(i.PendSV_Handler)
    i.Post0_Process                          0x08005db0   Section        0  usb_core.o(i.Post0_Process)
    i.PowerOn                                0x08005df4   Section        0  usb_pwr.o(i.PowerOn)
    i.QUEUE_PacketCreate                     0x08005e20   Section        0  usb_queue.o(i.QUEUE_PacketCreate)
    i.QUEUE_PacketIn                         0x08005e2c   Section        0  usb_queue.o(i.QUEUE_PacketIn)
    i.QUEUE_PacketOut                        0x08005e5c   Section        0  usb_queue.o(i.QUEUE_PacketOut)
    i.Q_rsqrt                                0x08005e94   Section        0  bf_status_mini_math.o(i.Q_rsqrt)
    i.Quaternion_Get                         0x08005ec8   Section        0  imu.o(i.Quaternion_Get)
    i.Quaternion_ToAngE                      0x0800629c   Section        0  imu.o(i.Quaternion_ToAngE)
    i.RCC_APB1PeriphClockCmd                 0x08006514   Section        0  stm32f10x_rcc.o(i.RCC_APB1PeriphClockCmd)
    i.RCC_APB1PeriphResetCmd                 0x0800652c   Section        0  stm32f10x_rcc.o(i.RCC_APB1PeriphResetCmd)
    i.RCC_APB2PeriphClockCmd                 0x08006544   Section        0  stm32f10x_rcc.o(i.RCC_APB2PeriphClockCmd)
    i.RCC_APB2PeriphResetCmd                 0x0800655c   Section        0  stm32f10x_rcc.o(i.RCC_APB2PeriphResetCmd)
    i.RCC_DeInit                             0x08006574   Section        0  stm32f10x_rcc.o(i.RCC_DeInit)
    i.RCC_USBCLKConfig                       0x080065b4   Section        0  stm32f10x_rcc.o(i.RCC_USBCLKConfig)
    i.RC_GetData                             0x080065c0   Section        0  bf_status_mini_rc.o(i.RC_GetData)
    i.RC_SendData                            0x08006768   Section        0  bf_status_mini_rc.o(i.RC_SendData)
    i.Resume                                 0x080068d4   Section        0  usb_pwr.o(i.Resume)
    i.Resume_Init                            0x08006968   Section        0  usb_pwr.o(i.Resume_Init)
    i.RunPID                                 0x08006988   Section        0  bf_status_mini_ctrl.o(i.RunPID)
    RunPID                                   0x08006989   Thumb Code   174  bf_status_mini_ctrl.o(i.RunPID)
    i.SOF_Callback                           0x08006a38   Section        0  usb_endp.o(i.SOF_Callback)
    i.SPI_Cmd                                0x08006a90   Section        0  stm32f10x_spi.o(i.SPI_Cmd)
    i.SPI_I2S_GetFlagStatus                  0x08006aa4   Section        0  stm32f10x_spi.o(i.SPI_I2S_GetFlagStatus)
    i.SPI_I2S_ReceiveData                    0x08006ab2   Section        0  stm32f10x_spi.o(i.SPI_I2S_ReceiveData)
    i.SPI_I2S_SendData                       0x08006ab6   Section        0  stm32f10x_spi.o(i.SPI_I2S_SendData)
    i.SPI_Init                               0x08006aba   Section        0  stm32f10x_spi.o(i.SPI_Init)
    i.SPI_NRF_RW                             0x08006af4   Section        0  nrf24l01.o(i.SPI_NRF_RW)
    SPI_NRF_RW                               0x08006af5   Thumb Code    48  nrf24l01.o(i.SPI_NRF_RW)
    i.SPI_NRF_ReadBuf                        0x08006b28   Section        0  nrf24l01.o(i.SPI_NRF_ReadBuf)
    SPI_NRF_ReadBuf                          0x08006b29   Thumb Code    54  nrf24l01.o(i.SPI_NRF_ReadBuf)
    i.SPI_NRF_ReadReg                        0x08006b64   Section        0  nrf24l01.o(i.SPI_NRF_ReadReg)
    SPI_NRF_ReadReg                          0x08006b65   Thumb Code    30  nrf24l01.o(i.SPI_NRF_ReadReg)
    i.SPI_NRF_WriteBuf                       0x08006b88   Section        0  nrf24l01.o(i.SPI_NRF_WriteBuf)
    SPI_NRF_WriteBuf                         0x08006b89   Thumb Code    54  nrf24l01.o(i.SPI_NRF_WriteBuf)
    i.SPI_NRF_WriteReg                       0x08006bc4   Section        0  nrf24l01.o(i.SPI_NRF_WriteReg)
    SPI_NRF_WriteReg                         0x08006bc5   Thumb Code    40  nrf24l01.o(i.SPI_NRF_WriteReg)
    i.ScaleLinear                            0x08006bf0   Section        0  bf_status_mini_math.o(i.ScaleLinear)
    i.Send_Once                              0x08006c40   Section        0  datascope_dp.o(i.Send_Once)
    i.Sensor_Get                             0x08006cbc   Section        0  imu.o(i.Sensor_Get)
    i.Sensor_init                            0x08006ddc   Section        0  bf_status_mini_system.o(i.Sensor_init)
    i.SetBTABLE                              0x08006e88   Section        0  usb_regs.o(i.SetBTABLE)
    i.SetDeviceAddress                       0x08006e98   Section        0  usb_core.o(i.SetDeviceAddress)
    i.SetEPRxAddr                            0x08006ee0   Section        0  usb_regs.o(i.SetEPRxAddr)
    i.SetEPRxCount                           0x08006f00   Section        0  usb_regs.o(i.SetEPRxCount)
    i.SetEPRxStatus                          0x08006f40   Section        0  usb_regs.o(i.SetEPRxStatus)
    i.SetEPRxValid                           0x08006f70   Section        0  usb_regs.o(i.SetEPRxValid)
    i.SetEPTxAddr                            0x08006f94   Section        0  usb_regs.o(i.SetEPTxAddr)
    i.SetEPTxCount                           0x08006fb4   Section        0  usb_regs.o(i.SetEPTxCount)
    i.SetEPTxStatus                          0x08006fd0   Section        0  usb_regs.o(i.SetEPTxStatus)
    i.SetEPTxValid                           0x08007000   Section        0  usb_regs.o(i.SetEPTxValid)
    i.SetEPType                              0x08007024   Section        0  usb_regs.o(i.SetEPType)
    i.SetSysClockTo72                        0x08007040   Section        0  system_stm32f10x.o(i.SetSysClockTo72)
    SetSysClockTo72                          0x08007041   Thumb Code   160  system_stm32f10x.o(i.SetSysClockTo72)
    i.Set_SYS_Mode                           0x080070e8   Section        0  battery.o(i.Set_SYS_Mode)
    i.Set_System                             0x080070f8   Section        0  hw_config.o(i.Set_System)
    i.Set_USBClock                           0x08007168   Section        0  hw_config.o(i.Set_USBClock)
    i.Setup0_Process                         0x0800717c   Section        0  usb_core.o(i.Setup0_Process)
    i.Single_Read                            0x080071e4   Section        0  stm32f10x_i2c.o(i.Single_Read)
    i.Single_Write                           0x08007236   Section        0  stm32f10x_i2c.o(i.Single_Write)
    i.Standard_ClearFeature                  0x0800727c   Section        0  usb_core.o(i.Standard_ClearFeature)
    i.Standard_GetConfiguration              0x08007378   Section        0  usb_core.o(i.Standard_GetConfiguration)
    i.Standard_GetDescriptorData             0x080073a0   Section        0  usb_core.o(i.Standard_GetDescriptorData)
    i.Standard_GetInterface                  0x080073bc   Section        0  usb_core.o(i.Standard_GetInterface)
    i.Standard_GetStatus                     0x080073e4   Section        0  usb_core.o(i.Standard_GetStatus)
    i.Standard_SetConfiguration              0x08007478   Section        0  usb_core.o(i.Standard_SetConfiguration)
    i.Standard_SetDeviceFeature              0x080074b0   Section        0  usb_core.o(i.Standard_SetDeviceFeature)
    i.Standard_SetEndPointFeature            0x080074d4   Section        0  usb_core.o(i.Standard_SetEndPointFeature)
    i.Standard_SetInterface                  0x0800755c   Section        0  usb_core.o(i.Standard_SetInterface)
    i.Suspend                                0x080075a4   Section        0  usb_pwr.o(i.Suspend)
    i.SystemInit                             0x08007664   Section        0  system_stm32f10x.o(i.SystemInit)
    i.TIM3_IRQHandler                        0x080076b4   Section        0  stm32f10x_it.o(i.TIM3_IRQHandler)
    i.TIM_Cmd                                0x080076c8   Section        0  stm32f10x_tim.o(i.TIM_Cmd)
    i.TIM_DeInit                             0x080076dc   Section        0  stm32f10x_tim.o(i.TIM_DeInit)
    i.TIM_OC1Init                            0x0800784c   Section        0  stm32f10x_tim.o(i.TIM_OC1Init)
    i.TIM_OC1PreloadConfig                   0x080078cc   Section        0  stm32f10x_tim.o(i.TIM_OC1PreloadConfig)
    i.TIM_OC2Init                            0x080078d8   Section        0  stm32f10x_tim.o(i.TIM_OC2Init)
    i.TIM_OC2PreloadConfig                   0x08007958   Section        0  stm32f10x_tim.o(i.TIM_OC2PreloadConfig)
    i.TIM_OC3Init                            0x0800796c   Section        0  stm32f10x_tim.o(i.TIM_OC3Init)
    i.TIM_OC3PreloadConfig                   0x080079e8   Section        0  stm32f10x_tim.o(i.TIM_OC3PreloadConfig)
    i.TIM_OC4Init                            0x080079f4   Section        0  stm32f10x_tim.o(i.TIM_OC4Init)
    i.TIM_OC4PreloadConfig                   0x08007a58   Section        0  stm32f10x_tim.o(i.TIM_OC4PreloadConfig)
    i.TIM_OCStructInit                       0x08007a6c   Section        0  stm32f10x_tim.o(i.TIM_OCStructInit)
    i.TIM_TimeBaseInit                       0x08007a80   Section        0  stm32f10x_tim.o(i.TIM_TimeBaseInit)
    i.TakeOff                                0x08007b1c   Section        0  bf_status_mini_ctrl.o(i.TakeOff)
    TakeOff                                  0x08007b1d   Thumb Code    74  bf_status_mini_ctrl.o(i.TakeOff)
    i.Task_Ctrl                              0x08007b7c   Section        0  app.o(i.Task_Ctrl)
    Task_Ctrl                                0x08007b7d   Thumb Code    28  app.o(i.Task_Ctrl)
    i.Task_RC                                0x08007b9c   Section        0  app.o(i.Task_RC)
    Task_RC                                  0x08007b9d   Thumb Code    48  app.o(i.Task_RC)
    i.Task_Start                             0x08007bd0   Section        0  app.o(i.Task_Start)
    i.Task_SysSta                            0x08007c8c   Section        0  app.o(i.Task_SysSta)
    Task_SysSta                              0x08007c8d   Thumb Code    80  app.o(i.Task_SysSta)
    i.Task_USB                               0x08007cec   Section        0  app.o(i.Task_USB)
    Task_USB                                 0x08007ced   Thumb Code    96  app.o(i.Task_USB)
    i.USART_DeInit                           0x08007d50   Section        0  stm32f10x_usart.o(i.USART_DeInit)
    i.USBWakeUp_IRQHandler                   0x08007dc4   Section        0  usb_it.o(i.USBWakeUp_IRQHandler)
    i.USB_Cable_Config                       0x08007dcc   Section        0  hw_config.o(i.USB_Cable_Config)
    i.USB_Config                             0x08007de4   Section        0  hw_config.o(i.USB_Config)
    i.USB_Init                               0x08007dfc   Section        0  usb_init.o(i.USB_Init)
    i.USB_Interrupts_Config                  0x08007e24   Section        0  hw_config.o(i.USB_Interrupts_Config)
    i.USB_Istr                               0x08007e58   Section        0  usb_istr.o(i.USB_Istr)
    i.USB_LP_CAN1_RX0_IRQHandler             0x08007fa4   Section        0  usb_it.o(i.USB_LP_CAN1_RX0_IRQHandler)
    i.USB_RxRead                             0x08007fa8   Section        0  hw_config.o(i.USB_RxRead)
    i.USB_RxWrite                            0x08007fb8   Section        0  hw_config.o(i.USB_RxWrite)
    i.USB_SIL_Init                           0x08007fc8   Section        0  usb_sil.o(i.USB_SIL_Init)
    i.USB_SIL_Read                           0x08007fe8   Section        0  usb_sil.o(i.USB_SIL_Read)
    i.USB_TxRead                             0x0800800c   Section        0  hw_config.o(i.USB_TxRead)
    i.USB_TxWrite                            0x0800801c   Section        0  hw_config.o(i.USB_TxWrite)
    i.UsageFault_Handler                     0x0800802c   Section        0  stm32f10x_it.o(i.UsageFault_Handler)
    i.UserToPMABufferCopy                    0x08008030   Section        0  usb_mem.o(i.UserToPMABufferCopy)
    i.Virtual_Com_Port_Data_Setup            0x08008058   Section        0  usb_prop.o(i.Virtual_Com_Port_Data_Setup)
    i.Virtual_Com_Port_GetConfigDescriptor   0x080080ac   Section        0  usb_prop.o(i.Virtual_Com_Port_GetConfigDescriptor)
    i.Virtual_Com_Port_GetDeviceDescriptor   0x080080b8   Section        0  usb_prop.o(i.Virtual_Com_Port_GetDeviceDescriptor)
    i.Virtual_Com_Port_GetLineCoding         0x080080c4   Section        0  usb_prop.o(i.Virtual_Com_Port_GetLineCoding)
    i.Virtual_Com_Port_GetStringDescriptor   0x080080e0   Section        0  usb_prop.o(i.Virtual_Com_Port_GetStringDescriptor)
    i.Virtual_Com_Port_Get_Interface_Setting 0x08008100   Section        0  usb_prop.o(i.Virtual_Com_Port_Get_Interface_Setting)
    i.Virtual_Com_Port_NoData_Setup          0x08008110   Section        0  usb_prop.o(i.Virtual_Com_Port_NoData_Setup)
    i.Virtual_Com_Port_Reset                 0x08008134   Section        0  usb_prop.o(i.Virtual_Com_Port_Reset)
    i.Virtual_Com_Port_SetConfiguration      0x08008214   Section        0  usb_prop.o(i.Virtual_Com_Port_SetConfiguration)
    i.Virtual_Com_Port_SetDeviceAddress      0x0800822c   Section        0  usb_prop.o(i.Virtual_Com_Port_SetDeviceAddress)
    i.Virtual_Com_Port_SetLineCoding         0x08008238   Section        0  usb_prop.o(i.Virtual_Com_Port_SetLineCoding)
    i.Virtual_Com_Port_Status_In             0x08008254   Section        0  usb_prop.o(i.Virtual_Com_Port_Status_In)
    i.Virtual_Com_Port_Status_Out            0x08008268   Section        0  usb_prop.o(i.Virtual_Com_Port_Status_Out)
    i.Virtual_Com_Port_init                  0x0800826c   Section        0  usb_prop.o(i.Virtual_Com_Port_init)
    i.__0printf$1                            0x08008290   Section        0  printf1.o(i.__0printf$1)
    i.__ARM_fpclassify                       0x080082b0   Section        0  fpclassify.o(i.__ARM_fpclassify)
    i.__ARM_fpclassifyf                      0x080082d8   Section        0  fpclassifyf.o(i.__ARM_fpclassifyf)
    i.__kernel_poly                          0x080082fe   Section        0  poly.o(i.__kernel_poly)
    i.__mathlib_dbl_divzero                  0x080083a8   Section        0  dunder.o(i.__mathlib_dbl_divzero)
    i.__mathlib_dbl_infnan2                  0x080083b8   Section        0  dunder.o(i.__mathlib_dbl_infnan2)
    i.__mathlib_dbl_invalid                  0x080083bc   Section        0  dunder.o(i.__mathlib_dbl_invalid)
    i.__mathlib_dbl_overflow                 0x080083c8   Section        0  dunder.o(i.__mathlib_dbl_overflow)
    i.__mathlib_dbl_underflow                0x080083d8   Section        0  dunder.o(i.__mathlib_dbl_underflow)
    i.__mathlib_flt_infnan                   0x080083e8   Section        0  funder.o(i.__mathlib_flt_infnan)
    i.__mathlib_flt_infnan2                  0x080083ee   Section        0  funder.o(i.__mathlib_flt_infnan2)
    i.__mathlib_flt_invalid                  0x080083f2   Section        0  funder.o(i.__mathlib_flt_invalid)
    i.__mathlib_flt_underflow                0x080083fa   Section        0  funder.o(i.__mathlib_flt_underflow)
    i.__mathlib_rredf2                       0x08008404   Section        0  rredf.o(i.__mathlib_rredf2)
    i.__scatterload_copy                     0x0800856c   Section       14  handlers.o(i.__scatterload_copy)
    i.__scatterload_null                     0x0800857a   Section        2  handlers.o(i.__scatterload_null)
    i.__scatterload_zeroinit                 0x0800857c   Section       14  handlers.o(i.__scatterload_zeroinit)
    i.__set_errno                            0x0800858c   Section        0  errno.o(i.__set_errno)
    i._printf_core                           0x08008598   Section        0  printf1.o(i._printf_core)
    _printf_core                             0x08008599   Thumb Code   336  printf1.o(i._printf_core)
    i.asinf                                  0x080086ec   Section        0  asinf.o(i.asinf)
    i.atan2f                                 0x08008810   Section        0  atan2f.o(i.atan2f)
    i.battery_init                           0x08008a6c   Section        0  battery.o(i.battery_init)
    i.battery_read                           0x08008b20   Section        0  battery.o(i.battery_read)
    i.bmp280CompensateP                      0x08008bb4   Section        0  bmp280.o(i.bmp280CompensateP)
    bmp280CompensateP                        0x08008bb5   Thumb Code   346  bmp280.o(i.bmp280CompensateP)
    i.bmp280GetData                          0x08008d18   Section        0  bmp280.o(i.bmp280GetData)
    i.bmp280PressureToAltitude               0x08008de0   Section        0  bmp280.o(i.bmp280PressureToAltitude)
    bmp280PressureToAltitude                 0x08008de1   Thumb Code    86  bmp280.o(i.bmp280PressureToAltitude)
    i.bmp280_init                            0x08008e54   Section        0  bmp280.o(i.bmp280_init)
    i.cosf                                   0x08008f3c   Section        0  cosf.o(i.cosf)
    i.data_load                              0x080090b8   Section        0  bf_status_mini_param.o(i.data_load)
    i.data_save                              0x08009120   Section        0  bf_status_mini_param.o(i.data_save)
    i.deadband                               0x08009198   Section        0  bf_status_mini_math.o(i.deadband)
    i.detecWeight                            0x080091d8   Section        0  bf_status_mini_ctrl.o(i.detecWeight)
    detecWeight                              0x080091d9   Thumb Code   250  bf_status_mini_ctrl.o(i.detecWeight)
    i.fputc                                  0x08009300   Section        0  hw_config.o(i.fputc)
    i.led_init                               0x08009310   Section        0  led.o(i.led_init)
    i.led_ref                                0x08009390   Section        0  led.o(i.led_ref)
    i.main                                   0x08009490   Section        0  main.o(i.main)
    i.motor_init                             0x080094c0   Section        0  motor.o(i.motor_init)
    i.motor_output                           0x08009580   Section        0  motor.o(i.motor_output)
    i.mpu_init                               0x0800961c   Section        0  mpu6050.o(i.mpu_init)
    i.param_init                             0x08009674   Section        0  bf_status_mini_param.o(i.param_init)
    i.pow                                    0x08009730   Section        0  pow.o(i.pow)
    i.presssureFilter                        0x0800a108   Section        0  bf_status_mini_filter.o(i.presssureFilter)
    i.prvAddCurrentTaskToDelayedList         0x0800a1c4   Section        0  tasks.o(i.prvAddCurrentTaskToDelayedList)
    prvAddCurrentTaskToDelayedList           0x0800a1c5   Thumb Code   102  tasks.o(i.prvAddCurrentTaskToDelayedList)
    i.prvAddNewTaskToReadyList               0x0800a234   Section        0  tasks.o(i.prvAddNewTaskToReadyList)
    prvAddNewTaskToReadyList                 0x0800a235   Thumb Code   192  tasks.o(i.prvAddNewTaskToReadyList)
    i.prvCheckTasksWaitingTermination        0x0800a304   Section        0  tasks.o(i.prvCheckTasksWaitingTermination)
    prvCheckTasksWaitingTermination          0x0800a305   Thumb Code    74  tasks.o(i.prvCheckTasksWaitingTermination)
    i.prvCopyDataFromQueue                   0x0800a358   Section        0  queue.o(i.prvCopyDataFromQueue)
    prvCopyDataFromQueue                     0x0800a359   Thumb Code    38  queue.o(i.prvCopyDataFromQueue)
    i.prvCopyDataToQueue                     0x0800a37e   Section        0  queue.o(i.prvCopyDataToQueue)
    prvCopyDataToQueue                       0x0800a37f   Thumb Code   108  queue.o(i.prvCopyDataToQueue)
    i.prvDeleteTCB                           0x0800a3ea   Section        0  tasks.o(i.prvDeleteTCB)
    prvDeleteTCB                             0x0800a3eb   Thumb Code    20  tasks.o(i.prvDeleteTCB)
    i.prvIdleTask                            0x0800a400   Section        0  tasks.o(i.prvIdleTask)
    prvIdleTask                              0x0800a401   Thumb Code    30  tasks.o(i.prvIdleTask)
    i.prvInitialiseNewTask                   0x0800a428   Section        0  tasks.o(i.prvInitialiseNewTask)
    prvInitialiseNewTask                     0x0800a429   Thumb Code   120  tasks.o(i.prvInitialiseNewTask)
    i.prvIsQueueEmpty                        0x0800a4a0   Section        0  queue.o(i.prvIsQueueEmpty)
    prvIsQueueEmpty                          0x0800a4a1   Thumb Code    26  queue.o(i.prvIsQueueEmpty)
    i.prvNotifyQueueSetContainer             0x0800a4ba   Section        0  queue.o(i.prvNotifyQueueSetContainer)
    prvNotifyQueueSetContainer               0x0800a4bb   Thumb Code    68  queue.o(i.prvNotifyQueueSetContainer)
    i.prvResetNextTaskUnblockTime            0x0800a500   Section        0  tasks.o(i.prvResetNextTaskUnblockTime)
    prvResetNextTaskUnblockTime              0x0800a501   Thumb Code    26  tasks.o(i.prvResetNextTaskUnblockTime)
    i.prvTaskExitError                       0x0800a520   Section        0  port.o(i.prvTaskExitError)
    prvTaskExitError                         0x0800a521   Thumb Code    16  port.o(i.prvTaskExitError)
    i.prvUnlockQueue                         0x0800a530   Section        0  queue.o(i.prvUnlockQueue)
    prvUnlockQueue                           0x0800a531   Thumb Code   120  queue.o(i.prvUnlockQueue)
    i.pvPortMalloc                           0x0800a5a8   Section        0  heap_2.o(i.pvPortMalloc)
    i.pvTaskIncrementMutexHeldCount          0x0800a65c   Section        0  tasks.o(i.pvTaskIncrementMutexHeldCount)
    i.pxPortInitialiseStack                  0x0800a674   Section        0  port.o(i.pxPortInitialiseStack)
    i.sinf                                   0x0800a698   Section        0  sinf.o(i.sinf)
    i.sqrt                                   0x0800a820   Section        0  sqrt.o(i.sqrt)
    i.sqrtf                                  0x0800a86c   Section        0  sqrtf.o(i.sqrtf)
    i.start_led                              0x0800a898   Section        0  led.o(i.start_led)
    i.system_init                            0x0800a8f4   Section        0  bf_status_mini_system.o(i.system_init)
    i.thrust_bat_compensated                 0x0800a928   Section        0  motor.o(i.thrust_bat_compensated)
    i.uxListRemove                           0x0800a990   Section        0  list.o(i.uxListRemove)
    i.vListInitialise                        0x0800a9b4   Section        0  list.o(i.vListInitialise)
    i.vListInitialiseItem                    0x0800a9ca   Section        0  list.o(i.vListInitialiseItem)
    i.vListInsert                            0x0800a9d0   Section        0  list.o(i.vListInsert)
    i.vListInsertEnd                         0x0800aa00   Section        0  list.o(i.vListInsertEnd)
    i.vPortEnterCritical                     0x0800aa18   Section        0  port.o(i.vPortEnterCritical)
    i.vPortExitCritical                      0x0800aa34   Section        0  port.o(i.vPortExitCritical)
    i.vPortFree                              0x0800aa48   Section        0  heap_2.o(i.vPortFree)
    i.vPortSetupTimerInterrupt               0x0800aa84   Section        0  port.o(i.vPortSetupTimerInterrupt)
    i.vTaskDelay                             0x0800aa98   Section        0  tasks.o(i.vTaskDelay)
    i.vTaskDelayUntil                        0x0800aac8   Section        0  tasks.o(i.vTaskDelayUntil)
    i.vTaskDelete                            0x0800ab20   Section        0  tasks.o(i.vTaskDelete)
    i.vTaskMissedYield                       0x0800abb8   Section        0  tasks.o(i.vTaskMissedYield)
    i.vTaskPlaceOnEventList                  0x0800abc4   Section        0  tasks.o(i.vTaskPlaceOnEventList)
    i.vTaskPriorityInherit                   0x0800abe8   Section        0  tasks.o(i.vTaskPriorityInherit)
    i.vTaskSetTimeOutState                   0x0800ac6c   Section        0  tasks.o(i.vTaskSetTimeOutState)
    i.vTaskStartScheduler                    0x0800ac7c   Section        0  tasks.o(i.vTaskStartScheduler)
    i.vTaskSuspendAll                        0x0800acd0   Section        0  tasks.o(i.vTaskSuspendAll)
    i.vTaskSwitchContext                     0x0800ace0   Section        0  tasks.o(i.vTaskSwitchContext)
    i.xPortGetFreeHeapSize                   0x0800ad24   Section        0  heap_2.o(i.xPortGetFreeHeapSize)
    i.xPortStartScheduler                    0x0800ad30   Section        0  port.o(i.xPortStartScheduler)
    i.xPortSysTickHandler                    0x0800ad60   Section        0  port.o(i.xPortSysTickHandler)
    i.xQueueCreateMutex                      0x0800ad8c   Section        0  queue.o(i.xQueueCreateMutex)
    i.xQueueGenericCreate                    0x0800adb0   Section        0  queue.o(i.xQueueGenericCreate)
    i.xQueueGenericReceive                   0x0800adec   Section        0  queue.o(i.xQueueGenericReceive)
    i.xQueueGenericReset                     0x0800af10   Section        0  queue.o(i.xQueueGenericReset)
    i.xQueueGenericSend                      0x0800af84   Section        0  queue.o(i.xQueueGenericSend)
    i.xTaskCheckForTimeOut                   0x0800b090   Section        0  tasks.o(i.xTaskCheckForTimeOut)
    i.xTaskCreate                            0x0800b0d8   Section        0  tasks.o(i.xTaskCreate)
    i.xTaskGetTickCount                      0x0800b130   Section        0  tasks.o(i.xTaskGetTickCount)
    i.xTaskIncrementTick                     0x0800b13c   Section        0  tasks.o(i.xTaskIncrementTick)
    i.xTaskPriorityDisinherit                0x0800b1f0   Section        0  tasks.o(i.xTaskPriorityDisinherit)
    i.xTaskRemoveFromEventList               0x0800b260   Section        0  tasks.o(i.xTaskRemoveFromEventList)
    i.xTaskResumeAll                         0x0800b2c4   Section        0  tasks.o(i.xTaskResumeAll)
    .constdata                               0x0800b374   Section       18  usb_desc.o(.constdata)
    .constdata                               0x0800b386   Section       67  usb_desc.o(.constdata)
    .constdata                               0x0800b3c9   Section        4  usb_desc.o(.constdata)
    .constdata                               0x0800b3cd   Section       14  usb_desc.o(.constdata)
    .constdata                               0x0800b3db   Section       34  usb_desc.o(.constdata)
    .constdata                               0x0800b400   Section      136  pow.o(.constdata)
    bp                                       0x0800b400   Data          16  pow.o(.constdata)
    dp_h                                     0x0800b410   Data          16  pow.o(.constdata)
    dp_l                                     0x0800b420   Data          16  pow.o(.constdata)
    L                                        0x0800b430   Data          48  pow.o(.constdata)
    P                                        0x0800b460   Data          40  pow.o(.constdata)
    .constdata                               0x0800b488   Section        8  qnan.o(.constdata)
    .constdata                               0x0800b490   Section       32  rredf.o(.constdata)
    twooverpi                                0x0800b490   Data          32  rredf.o(.constdata)
    .data                                    0x20000000   Section       20  system_stm32f10x.o(.data)
    .data                                    0x20000014   Section      108  mpu6050.o(.data)
    .data                                    0x20000080   Section       40  bmp280.o(.data)
    .data                                    0x200000a8   Section       92  nrf24l01.o(.data)
    .data                                    0x20000104   Section       20  battery.o(.data)
    .data                                    0x20000118   Section       32  motor.o(.data)
    .data                                    0x20000138   Section        1  led.o(.data)
    xh_ct                                    0x20000138   Data           1  led.o(.data)
    .data                                    0x2000013c   Section       16  bf_status_mini_param.o(.data)
    .data                                    0x20000150   Section       40  bf_status_mini_filter.o(.data)
    .data                                    0x20000178   Section       40  bf_status_mini_filter.o(.data)
    .data                                    0x200001a0   Section        1  bf_status_mini_filter.o(.data)
    i                                        0x200001a0   Data           1  bf_status_mini_filter.o(.data)
    .data                                    0x200001a4   Section       24  bf_status_mini_ctrl.o(.data)
    flap_wait                                0x200001a6   Data           1  bf_status_mini_ctrl.o(.data)
    cnt                                      0x200001aa   Data           2  bf_status_mini_ctrl.o(.data)
    sum                                      0x200001b0   Data           4  bf_status_mini_ctrl.o(.data)
    detaThrust                               0x200001b4   Data           4  bf_status_mini_ctrl.o(.data)
    last_output                              0x200001b8   Data           4  bf_status_mini_ctrl.o(.data)
    .data                                    0x200001bc   Section       14  bf_status_mini_rc.o(.data)
    .data                                    0x200001cc   Section       76  imu.o(.data)
    hz_rote                                  0x200001cc   Data           1  imu.o(.data)
    exInt                                    0x200001d0   Data           4  imu.o(.data)
    eyInt                                    0x200001d4   Data           4  imu.o(.data)
    ezInt                                    0x200001d8   Data           4  imu.o(.data)
    last_vz                                  0x200001dc   Data           4  imu.o(.data)
    x                                        0x200001e0   Data           4  imu.o(.data)
    y                                        0x200001e4   Data           4  imu.o(.data)
    z                                        0x200001e8   Data           4  imu.o(.data)
    .data                                    0x20000218   Section        4  app.o(.data)
    .data                                    0x2000021c   Section        8  hw_config.o(.data)
    .data                                    0x20000224   Section       34  usb_desc.o(.data)
    .data                                    0x20000248   Section        8  usb_endp.o(.data)
    txFlg                                    0x20000248   Data           1  usb_endp.o(.data)
    FrameCount                               0x2000024c   Data           4  usb_endp.o(.data)
    .data                                    0x20000250   Section       12  usb_istr.o(.data)
    .data                                    0x2000025c   Section       28  usb_istr.o(.data)
    .data                                    0x20000278   Section       28  usb_istr.o(.data)
    .data                                    0x20000294   Section      108  usb_prop.o(.data)
    .data                                    0x20000300   Section        2  usb_prop.o(.data)
    .data                                    0x20000304   Section       36  usb_prop.o(.data)
    .data                                    0x20000328   Section        4  usb_pwr.o(.data)
    .data                                    0x2000032c   Section        1  usb_pwr.o(.data)
    .data                                    0x20000330   Section        8  usb_pwr.o(.data)
    .data                                    0x20000338   Section        4  usb_core.o(.data)
    .data                                    0x2000033c   Section        1  usb_init.o(.data)
    .data                                    0x20000340   Section       12  usb_init.o(.data)
    .data                                    0x2000034c   Section        2  usb_init.o(.data)
    .data                                    0x2000034e   Section        4  usb_int.o(.data)
    .data                                    0x20000354   Section        4  port.o(.data)
    uxCriticalNesting                        0x20000354   Data           4  port.o(.data)
    .data                                    0x20000358   Section       60  tasks.o(.data)
    uxDeletedTasksWaitingCleanUp             0x2000035c   Data           4  tasks.o(.data)
    uxCurrentNumberOfTasks                   0x20000360   Data           4  tasks.o(.data)
    xTickCount                               0x20000364   Data           4  tasks.o(.data)
    uxTopReadyPriority                       0x20000368   Data           4  tasks.o(.data)
    xSchedulerRunning                        0x2000036c   Data           4  tasks.o(.data)
    uxPendedTicks                            0x20000370   Data           4  tasks.o(.data)
    xYieldPending                            0x20000374   Data           4  tasks.o(.data)
    xNumOfOverflows                          0x20000378   Data           4  tasks.o(.data)
    uxTaskNumber                             0x2000037c   Data           4  tasks.o(.data)
    xNextTaskUnblockTime                     0x20000380   Data           4  tasks.o(.data)
    xIdleTaskHandle                          0x20000384   Data           4  tasks.o(.data)
    uxSchedulerSuspended                     0x20000388   Data           4  tasks.o(.data)
    pxDelayedTaskList                        0x2000038c   Data           4  tasks.o(.data)
    pxOverflowDelayedTaskList                0x20000390   Data           4  tasks.o(.data)
    .data                                    0x20000394   Section       24  heap_2.o(.data)
    xFreeBytesRemaining                      0x20000394   Data           4  heap_2.o(.data)
    xHeapHasBeenInitialised                  0x20000398   Data           4  heap_2.o(.data)
    xStart                                   0x2000039c   Data           8  heap_2.o(.data)
    xEnd                                     0x200003a4   Data           8  heap_2.o(.data)
    .data                                    0x200003ac   Section        4  stdout.o(.data)
    .data                                    0x200003b0   Section        4  errno.o(.data)
    _errno                                   0x200003b0   Data           4  errno.o(.data)
    .bss                                     0x200003b4   Section       42  datascope_dp.o(.bss)
    DataScope_OutPut_Buffer                  0x200003b4   Data          42  datascope_dp.o(.bss)
    .bss                                     0x200003e0   Section       28  bmp280.o(.bss)
    .bss                                     0x200003fc   Section       20  bf_status_mini_global.o(.bss)
    .bss                                     0x20000410   Section       24  bf_status_mini_global.o(.bss)
    .bss                                     0x20000428   Section      120  bf_status_mini_filter.o(.bss)
    .bss                                     0x200004a0   Section      120  bf_status_mini_filter.o(.bss)
    .bss                                     0x20000518   Section      104  bf_status_mini_filter.o(.bss)
    filter_buf                               0x2000056c   Data          20  bf_status_mini_filter.o(.bss)
    .bss                                     0x20000580   Section      388  bf_status_mini_ctrl.o(.bss)
    .bss                                     0x20000704   Section     2592  hw_config.o(.bss)
    m_QueueUsbComRx                          0x20000704   Data          16  hw_config.o(.bss)
    m_QueueUsbComTx                          0x20000714   Data          16  hw_config.o(.bss)
    m_UsbComRxBuf                            0x20000724   Data        1280  hw_config.o(.bss)
    m_UsbComTxBuf                            0x20000c24   Data        1280  hw_config.o(.bss)
    .bss                                     0x20001124   Section      128  usb_endp.o(.bss)
    txBuffter                                0x20001124   Data          64  usb_endp.o(.bss)
    buffter                                  0x20001164   Data          64  usb_endp.o(.bss)
    .bss                                     0x200011a4   Section       32  usb_pwr.o(.bss)
    .bss                                     0x200011c4   Section       28  usb_init.o(.bss)
    .bss                                     0x200011e0   Section      300  tasks.o(.bss)
    pxReadyTasksLists                        0x200011e0   Data         200  tasks.o(.bss)
    xDelayedTaskList1                        0x200012a8   Data          20  tasks.o(.bss)
    xDelayedTaskList2                        0x200012bc   Data          20  tasks.o(.bss)
    xPendingReadyList                        0x200012d0   Data          20  tasks.o(.bss)
    xTasksWaitingTermination                 0x200012e4   Data          20  tasks.o(.bss)
    xSuspendedTaskList                       0x200012f8   Data          20  tasks.o(.bss)
    .bss                                     0x2000130c   Section    12288  heap_2.o(.bss)
    ucHeap                                   0x2000130c   Data       12288  heap_2.o(.bss)
    STACK                                    0x20004310   Section     1024  startup_stm32f10x_md.o(STACK)

    Global Symbols

    Symbol Name                              Value     Ov Type        Size  Object(Section)

    BuildAttributes$$THM_ISAv4$P$D$K$B$S$PE$A:L22UL41UL21$X:L11$S22US41US21$IEEE1$IW$USESV6$~STKCKD$USESV7$~SHL$OTIME$ROPI$IEEEX$EBA8$MICROLIB$REQ8$PRES8$EABIv2 0x00000000   Number         0  anon$$obj.o ABSOLUTE
    __ARM_use_no_argv                        0x00000000   Number         0  main.o ABSOLUTE
    _printf_a                                0x00000000   Number         0  stubs.o ABSOLUTE
    _printf_c                                0x00000000   Number         0  stubs.o ABSOLUTE
    _printf_charcount                        0x00000000   Number         0  stubs.o ABSOLUTE
    _printf_d                                0x00000000   Number         0  stubs.o ABSOLUTE
    _printf_e                                0x00000000   Number         0  stubs.o ABSOLUTE
    _printf_f                                0x00000000   Number         0  stubs.o ABSOLUTE
    _printf_flags                            0x00000000   Number         0  stubs.o ABSOLUTE
    _printf_fp_dec                           0x00000000   Number         0  stubs.o ABSOLUTE
    _printf_fp_hex                           0x00000000   Number         0  stubs.o ABSOLUTE
    _printf_g                                0x00000000   Number         0  stubs.o ABSOLUTE
    _printf_i                                0x00000000   Number         0  stubs.o ABSOLUTE
    _printf_int_dec                          0x00000000   Number         0  stubs.o ABSOLUTE
    _printf_l                                0x00000000   Number         0  stubs.o ABSOLUTE
    _printf_lc                               0x00000000   Number         0  stubs.o ABSOLUTE
    _printf_ll                               0x00000000   Number         0  stubs.o ABSOLUTE
    _printf_lld                              0x00000000   Number         0  stubs.o ABSOLUTE
    _printf_lli                              0x00000000   Number         0  stubs.o ABSOLUTE
    _printf_llo                              0x00000000   Number         0  stubs.o ABSOLUTE
    _printf_llu                              0x00000000   Number         0  stubs.o ABSOLUTE
    _printf_llx                              0x00000000   Number         0  stubs.o ABSOLUTE
    _printf_longlong_dec                     0x00000000   Number         0  stubs.o ABSOLUTE
    _printf_longlong_hex                     0x00000000   Number         0  stubs.o ABSOLUTE
    _printf_longlong_oct                     0x00000000   Number         0  stubs.o ABSOLUTE
    _printf_ls                               0x00000000   Number         0  stubs.o ABSOLUTE
    _printf_mbtowc                           0x00000000   Number         0  stubs.o ABSOLUTE
    _printf_n                                0x00000000   Number         0  stubs.o ABSOLUTE
    _printf_o                                0x00000000   Number         0  stubs.o ABSOLUTE
    _printf_p                                0x00000000   Number         0  stubs.o ABSOLUTE
    _printf_percent                          0x00000000   Number         0  stubs.o ABSOLUTE
    _printf_pre_padding                      0x00000000   Number         0  stubs.o ABSOLUTE
    _printf_return_value                     0x00000000   Number         0  stubs.o ABSOLUTE
    _printf_s                                0x00000000   Number         0  stubs.o ABSOLUTE
    _printf_sizespec                         0x00000000   Number         0  stubs.o ABSOLUTE
    _printf_str                              0x00000000   Number         0  stubs.o ABSOLUTE
    _printf_truncate_signed                  0x00000000   Number         0  stubs.o ABSOLUTE
    _printf_truncate_unsigned                0x00000000   Number         0  stubs.o ABSOLUTE
    _printf_u                                0x00000000   Number         0  stubs.o ABSOLUTE
    _printf_wc                               0x00000000   Number         0  stubs.o ABSOLUTE
    _printf_wctomb                           0x00000000   Number         0  stubs.o ABSOLUTE
    _printf_widthprec                        0x00000000   Number         0  stubs.o ABSOLUTE
    _printf_x                                0x00000000   Number         0  stubs.o ABSOLUTE
    __cpp_initialize__aeabi_                  - Undefined Weak Reference
    __cxa_finalize                            - Undefined Weak Reference
    _clock_init                               - Undefined Weak Reference
    _microlib_exit                            - Undefined Weak Reference
    __Vectors_Size                           0x000000ec   Number         0  startup_stm32f10x_md.o ABSOLUTE
    __Vectors                                0x08003400   Data           4  startup_stm32f10x_md.o(RESET)
    __Vectors_End                            0x080034ec   Data           0  startup_stm32f10x_md.o(RESET)
    __main                                   0x080034ed   Thumb Code     0  entry.o(.ARM.Collect$$$$00000000)
    _main_stk                                0x080034ed   Thumb Code     0  entry2.o(.ARM.Collect$$$$00000001)
    _main_scatterload                        0x080034f1   Thumb Code     0  entry5.o(.ARM.Collect$$$$00000004)
    __main_after_scatterload                 0x080034f5   Thumb Code     0  entry5.o(.ARM.Collect$$$$00000004)
    _main_clock                              0x080034f5   Thumb Code     0  entry7b.o(.ARM.Collect$$$$00000008)
    _main_cpp_init                           0x080034f5   Thumb Code     0  entry8b.o(.ARM.Collect$$$$0000000A)
    _main_init                               0x080034f5   Thumb Code     0  entry9a.o(.ARM.Collect$$$$0000000B)
    __rt_final_cpp                           0x080034fd   Thumb Code     0  entry10a.o(.ARM.Collect$$$$0000000D)
    __rt_final_exit                          0x080034fd   Thumb Code     0  entry11a.o(.ARM.Collect$$$$0000000F)
    __get_PSP                                0x08003501   Thumb Code     6  core_cm3.o(.emb_text)
    __set_PSP                                0x08003507   Thumb Code     6  core_cm3.o(.emb_text)
    __get_MSP                                0x0800350d   Thumb Code     6  core_cm3.o(.emb_text)
    __set_MSP                                0x08003513   Thumb Code     6  core_cm3.o(.emb_text)
    __REV16                                  0x08003519   Thumb Code     4  core_cm3.o(.emb_text)
    __REVSH                                  0x0800351d   Thumb Code     4  core_cm3.o(.emb_text)
    SystemReset                              0x08003521   Thumb Code    16  battery.o(.emb_text)
    vPortSVCHandler                          0x08003539   Thumb Code    32  port.o(.emb_text)
    __asm___6_port_c_39a90d8d__prvStartFirstTask 0x0800355d   Thumb Code    28  port.o(.emb_text)
    xPortPendSVHandler                       0x0800357d   Thumb Code    72  port.o(.emb_text)
    vPortGetIPSR                             0x080035c9   Thumb Code     6  port.o(.emb_text)
    Reset_Handler                            0x080035d1   Thumb Code     8  startup_stm32f10x_md.o(.text)
    SVC_Handler                              0x080035e3   Thumb Code     2  startup_stm32f10x_md.o(.text)
    OS_CPU_PendSVHandler                     0x080035e7   Thumb Code     2  startup_stm32f10x_md.o(.text)
    SysTick_Handler                          0x080035e9   Thumb Code     2  startup_stm32f10x_md.o(.text)
    ADC1_2_IRQHandler                        0x080035eb   Thumb Code     0  startup_stm32f10x_md.o(.text)
    CAN1_RX1_IRQHandler                      0x080035eb   Thumb Code     0  startup_stm32f10x_md.o(.text)
    CAN1_SCE_IRQHandler                      0x080035eb   Thumb Code     0  startup_stm32f10x_md.o(.text)
    DMA1_Channel1_IRQHandler                 0x080035eb   Thumb Code     0  startup_stm32f10x_md.o(.text)
    DMA1_Channel2_IRQHandler                 0x080035eb   Thumb Code     0  startup_stm32f10x_md.o(.text)
    DMA1_Channel3_IRQHandler                 0x080035eb   Thumb Code     0  startup_stm32f10x_md.o(.text)
    DMA1_Channel4_IRQHandler                 0x080035eb   Thumb Code     0  startup_stm32f10x_md.o(.text)
    DMA1_Channel5_IRQHandler                 0x080035eb   Thumb Code     0  startup_stm32f10x_md.o(.text)
    DMA1_Channel6_IRQHandler                 0x080035eb   Thumb Code     0  startup_stm32f10x_md.o(.text)
    DMA1_Channel7_IRQHandler                 0x080035eb   Thumb Code     0  startup_stm32f10x_md.o(.text)
    EXTI0_IRQHandler                         0x080035eb   Thumb Code     0  startup_stm32f10x_md.o(.text)
    EXTI15_10_IRQHandler                     0x080035eb   Thumb Code     0  startup_stm32f10x_md.o(.text)
    EXTI1_IRQHandler                         0x080035eb   Thumb Code     0  startup_stm32f10x_md.o(.text)
    EXTI2_IRQHandler                         0x080035eb   Thumb Code     0  startup_stm32f10x_md.o(.text)
    EXTI3_IRQHandler                         0x080035eb   Thumb Code     0  startup_stm32f10x_md.o(.text)
    EXTI4_IRQHandler                         0x080035eb   Thumb Code     0  startup_stm32f10x_md.o(.text)
    EXTI9_5_IRQHandler                       0x080035eb   Thumb Code     0  startup_stm32f10x_md.o(.text)
    FLASH_IRQHandler                         0x080035eb   Thumb Code     0  startup_stm32f10x_md.o(.text)
    I2C1_ER_IRQHandler                       0x080035eb   Thumb Code     0  startup_stm32f10x_md.o(.text)
    I2C1_EV_IRQHandler                       0x080035eb   Thumb Code     0  startup_stm32f10x_md.o(.text)
    I2C2_ER_IRQHandler                       0x080035eb   Thumb Code     0  startup_stm32f10x_md.o(.text)
    I2C2_EV_IRQHandler                       0x080035eb   Thumb Code     0  startup_stm32f10x_md.o(.text)
    PVD_IRQHandler                           0x080035eb   Thumb Code     0  startup_stm32f10x_md.o(.text)
    RCC_IRQHandler                           0x080035eb   Thumb Code     0  startup_stm32f10x_md.o(.text)
    RTCAlarm_IRQHandler                      0x080035eb   Thumb Code     0  startup_stm32f10x_md.o(.text)
    RTC_IRQHandler                           0x080035eb   Thumb Code     0  startup_stm32f10x_md.o(.text)
    SPI1_IRQHandler                          0x080035eb   Thumb Code     0  startup_stm32f10x_md.o(.text)
    SPI2_IRQHandler                          0x080035eb   Thumb Code     0  startup_stm32f10x_md.o(.text)
    TAMPER_IRQHandler                        0x080035eb   Thumb Code     0  startup_stm32f10x_md.o(.text)
    TIM1_BRK_IRQHandler                      0x080035eb   Thumb Code     0  startup_stm32f10x_md.o(.text)
    TIM1_CC_IRQHandler                       0x080035eb   Thumb Code     0  startup_stm32f10x_md.o(.text)
    TIM1_TRG_COM_IRQHandler                  0x080035eb   Thumb Code     0  startup_stm32f10x_md.o(.text)
    TIM1_UP_IRQHandler                       0x080035eb   Thumb Code     0  startup_stm32f10x_md.o(.text)
    TIM2_IRQHandler                          0x080035eb   Thumb Code     0  startup_stm32f10x_md.o(.text)
    TIM4_IRQHandler                          0x080035eb   Thumb Code     0  startup_stm32f10x_md.o(.text)
    USART1_IRQHandler                        0x080035eb   Thumb Code     0  startup_stm32f10x_md.o(.text)
    USART2_IRQHandler                        0x080035eb   Thumb Code     0  startup_stm32f10x_md.o(.text)
    USART3_IRQHandler                        0x080035eb   Thumb Code     0  startup_stm32f10x_md.o(.text)
    USB_HP_CAN1_TX_IRQHandler                0x080035eb   Thumb Code     0  startup_stm32f10x_md.o(.text)
    WWDG_IRQHandler                          0x080035eb   Thumb Code     0  startup_stm32f10x_md.o(.text)
    __aeabi_ldivmod                          0x080035f5   Thumb Code    98  ldiv.o(.text)
    __aeabi_memcpy                           0x08003657   Thumb Code    36  memcpya.o(.text)
    __aeabi_memcpy4                          0x08003657   Thumb Code     0  memcpya.o(.text)
    __aeabi_memcpy8                          0x08003657   Thumb Code     0  memcpya.o(.text)
    __aeabi_fadd                             0x0800367b   Thumb Code   164  fadd.o(.text)
    __aeabi_fsub                             0x0800371f   Thumb Code     6  fadd.o(.text)
    __aeabi_frsub                            0x08003725   Thumb Code     6  fadd.o(.text)
    __aeabi_fmul                             0x0800372b   Thumb Code   100  fmul.o(.text)
    __aeabi_fdiv                             0x0800378f   Thumb Code   124  fdiv.o(.text)
    __ARM_scalbnf                            0x0800380b   Thumb Code    24  fscalb.o(.text)
    scalbnf                                  0x0800380b   Thumb Code     0  fscalb.o(.text)
    __aeabi_dadd                             0x08003823   Thumb Code   322  dadd.o(.text)
    __aeabi_dsub                             0x08003965   Thumb Code     6  dadd.o(.text)
    __aeabi_drsub                            0x0800396b   Thumb Code     6  dadd.o(.text)
    __aeabi_dmul                             0x08003971   Thumb Code   228  dmul.o(.text)
    __aeabi_ddiv                             0x08003a55   Thumb Code   222  ddiv.o(.text)
    __aeabi_i2f                              0x08003b33   Thumb Code    18  fflti.o(.text)
    __aeabi_ui2f                             0x08003b45   Thumb Code    10  ffltui.o(.text)
    __aeabi_f2iz                             0x08003b4f   Thumb Code    50  ffixi.o(.text)
    __aeabi_f2uiz                            0x08003b81   Thumb Code    40  ffixui.o(.text)
    __aeabi_f2d                              0x08003ba9   Thumb Code    38  f2d.o(.text)
    __aeabi_d2f                              0x08003bcf   Thumb Code    56  d2f.o(.text)
    __aeabi_cfcmpeq                          0x08003c09   Thumb Code     0  cfcmple.o(.text)
    __aeabi_cfcmple                          0x08003c09   Thumb Code    20  cfcmple.o(.text)
    __aeabi_cfrcmple                         0x08003c1d   Thumb Code    20  cfrcmple.o(.text)
    __aeabi_uidiv                            0x08003c31   Thumb Code     0  uidiv.o(.text)
    __aeabi_uidivmod                         0x08003c31   Thumb Code    44  uidiv.o(.text)
    __aeabi_uldivmod                         0x08003c5d   Thumb Code    98  uldiv.o(.text)
    __aeabi_llsl                             0x08003cbf   Thumb Code    30  llshl.o(.text)
    _ll_shift_l                              0x08003cbf   Thumb Code     0  llshl.o(.text)
    __aeabi_lasr                             0x08003cdd   Thumb Code    36  llsshr.o(.text)
    _ll_sshift_r                             0x08003cdd   Thumb Code     0  llsshr.o(.text)
    __I$use$fp                               0x08003d01   Thumb Code     0  iusefp.o(.text)
    _float_round                             0x08003d01   Thumb Code    18  fepilogue.o(.text)
    _float_epilogue                          0x08003d13   Thumb Code    92  fepilogue.o(.text)
    _frnd                                    0x08003d6f   Thumb Code    60  frnd.o(.text)
    _double_round                            0x08003dab   Thumb Code    30  depilogue.o(.text)
    _double_epilogue                         0x08003dc9   Thumb Code   156  depilogue.o(.text)
    __ARM_scalbn                             0x08003e65   Thumb Code    46  dscalb.o(.text)
    scalbn                                   0x08003e65   Thumb Code     0  dscalb.o(.text)
    __aeabi_i2d                              0x08003e93   Thumb Code    34  dflti.o(.text)
    __aeabi_cdrcmple                         0x08003eb5   Thumb Code    48  cdrcmple.o(.text)
    __scatterload                            0x08003ee5   Thumb Code    28  init.o(.text)
    __scatterload_rt2                        0x08003ee5   Thumb Code     0  init.o(.text)
    __aeabi_llsr                             0x08003f09   Thumb Code    32  llushr.o(.text)
    _ll_ushift_r                             0x08003f09   Thumb Code     0  llushr.o(.text)
    _fsqrt                                   0x08003f29   Thumb Code    94  fsqrt.o(.text)
    _dsqrt                                   0x08003f87   Thumb Code   162  dsqrt.o(.text)
    __decompress                             0x08004029   Thumb Code     0  __dczerorl2.o(.text)
    __decompress1                            0x08004029   Thumb Code    86  __dczerorl2.o(.text)
    ADC_Cmd                                  0x0800407f   Thumb Code    20  stm32f10x_adc.o(i.ADC_Cmd)
    ADC_GetCalibrationStatus                 0x08004093   Thumb Code    14  stm32f10x_adc.o(i.ADC_GetCalibrationStatus)
    ADC_GetConversionValue                   0x080040a1   Thumb Code     6  stm32f10x_adc.o(i.ADC_GetConversionValue)
    ADC_GetFlagStatus                        0x080040a7   Thumb Code    14  stm32f10x_adc.o(i.ADC_GetFlagStatus)
    ADC_GetResetCalibrationStatus            0x080040b5   Thumb Code    14  stm32f10x_adc.o(i.ADC_GetResetCalibrationStatus)
    ADC_Init                                 0x080040c5   Thumb Code    62  stm32f10x_adc.o(i.ADC_Init)
    ADC_RegularChannelConfig                 0x0800410d   Thumb Code   116  stm32f10x_adc.o(i.ADC_RegularChannelConfig)
    ADC_ResetCalibration                     0x08004181   Thumb Code    10  stm32f10x_adc.o(i.ADC_ResetCalibration)
    ADC_SoftwareStartConvCmd                 0x0800418b   Thumb Code    20  stm32f10x_adc.o(i.ADC_SoftwareStartConvCmd)
    ADC_StartCalibration                     0x0800419f   Thumb Code    10  stm32f10x_adc.o(i.ADC_StartCalibration)
    Angle_Get                                0x080042a1   Thumb Code    26  imu.o(i.Angle_Get)
    BSP_init                                 0x080042c1   Thumb Code    30  bf_status_mini_system.o(i.BSP_init)
    BusFault_Handler                         0x080042e9   Thumb Code     2  stm32f10x_it.o(i.BusFault_Handler)
    ByteSwap                                 0x080042eb   Thumb Code    10  usb_regs.o(i.ByteSwap)
    CTR_LP                                   0x080042f5   Thumb Code   314  usb_int.o(i.CTR_LP)
    ClearDTOG_RX                             0x08004685   Thumb Code    36  usb_regs.o(i.ClearDTOG_RX)
    ClearDTOG_TX                             0x080046ad   Thumb Code    36  usb_regs.o(i.ClearDTOG_TX)
    Clear_Status_Out                         0x080046d5   Thumb Code    28  usb_regs.o(i.Clear_Status_Out)
    Control                                  0x080046f5   Thumb Code   246  bf_status_mini_ctrl.o(i.Control)
    DebugMon_Handler                         0x08004d05   Thumb Code     2  stm32f10x_it.o(i.DebugMon_Handler)
    DelayMs                                  0x08004d07   Thumb Code    16  stm32fx_delay.o(i.DelayMs)
    DelayUs                                  0x08004d17   Thumb Code    24  stm32fx_delay.o(i.DelayUs)
    EP1_IN_Callback                          0x08004d31   Thumb Code    60  usb_endp.o(i.EP1_IN_Callback)
    EP3_OUT_Callback                         0x08004d75   Thumb Code    28  usb_endp.o(i.EP3_OUT_Callback)
    EXTI_ClearITPendingBit                   0x08004d95   Thumb Code     6  stm32f10x_exti.o(i.EXTI_ClearITPendingBit)
    EXTI_Init                                0x08004da1   Thumb Code   108  stm32f10x_exti.o(i.EXTI_Init)
    FLASH_ErasePage                          0x08004e11   Thumb Code    56  stm32f10x_flash.o(i.FLASH_ErasePage)
    FLASH_GetBank1Status                     0x08004e4d   Thumb Code    34  stm32f10x_flash.o(i.FLASH_GetBank1Status)
    FLASH_Lock                               0x08004e75   Thumb Code    12  stm32f10x_flash.o(i.FLASH_Lock)
    FLASH_ProgramHalfWord                    0x08004e85   Thumb Code    48  stm32f10x_flash.o(i.FLASH_ProgramHalfWord)
    FLASH_ProgramWord                        0x08004eb9   Thumb Code    76  stm32f10x_flash.o(i.FLASH_ProgramWord)
    FLASH_ReadHalfWord                       0x08004f09   Thumb Code     4  stm32f10x_flash.o(i.FLASH_ReadHalfWord)
    FLASH_ReadWord                           0x08004f0d   Thumb Code     4  stm32f10x_flash.o(i.FLASH_ReadWord)
    FLASH_Unlock                             0x08004f11   Thumb Code    12  stm32f10x_flash.o(i.FLASH_Unlock)
    FLASH_WaitForLastOperation               0x08004f29   Thumb Code    34  stm32f10x_flash.o(i.FLASH_WaitForLastOperation)
    Flag_Clear                               0x08004f4d   Thumb Code    56  bf_status_mini_param.o(i.Flag_Clear)
    GPIO_DeInit                              0x08004fa1   Thumb Code   152  stm32f10x_gpio.o(i.GPIO_DeInit)
    GPIO_Init                                0x08005055   Thumb Code   156  stm32f10x_gpio.o(i.GPIO_Init)
    GPIO_PinRemapConfig                      0x080050f1   Thumb Code    82  stm32f10x_gpio.o(i.GPIO_PinRemapConfig)
    GPIO_QuickInit                           0x08005149   Thumb Code    40  stm32f10x_gpio.o(i.GPIO_QuickInit)
    GPIO_ReadInputDataBit                    0x08005171   Thumb Code    14  stm32f10x_gpio.o(i.GPIO_ReadInputDataBit)
    GPIO_ResetBits                           0x0800517f   Thumb Code     4  stm32f10x_gpio.o(i.GPIO_ResetBits)
    GPIO_SetBits                             0x08005183   Thumb Code     4  stm32f10x_gpio.o(i.GPIO_SetBits)
    GetEPRxAddr                              0x08005189   Thumb Code    22  usb_regs.o(i.GetEPRxAddr)
    GetEPRxCount                             0x080051a9   Thumb Code    24  usb_regs.o(i.GetEPRxCount)
    GetEPTxAddr                              0x080051c9   Thumb Code    20  usb_regs.o(i.GetEPTxAddr)
    Get_SerialNum                            0x080051e5   Thumb Code    44  hw_config.o(i.Get_SerialNum)
    HardFault_Handler                        0x08005219   Thumb Code     2  stm32f10x_it.o(i.HardFault_Handler)
    I2C_Ack                                  0x0800521d   Thumb Code    40  stm32f10x_i2c.o(i.I2C_Ack)
    I2C_INIT                                 0x08005249   Thumb Code    78  stm32f10x_i2c.o(i.I2C_INIT)
    I2C_NoAck                                0x0800529d   Thumb Code    40  stm32f10x_i2c.o(i.I2C_NoAck)
    I2C_RadeByte                             0x080052c9   Thumb Code    58  stm32f10x_i2c.o(i.I2C_RadeByte)
    I2C_Read                                 0x08005309   Thumb Code    90  stm32f10x_i2c.o(i.I2C_Read)
    I2C_SendByte                             0x08005365   Thumb Code    52  stm32f10x_i2c.o(i.I2C_SendByte)
    I2C_Start                                0x0800539d   Thumb Code    52  stm32f10x_i2c.o(i.I2C_Start)
    I2C_Stop                                 0x080053d5   Thumb Code    40  stm32f10x_i2c.o(i.I2C_Stop)
    I2C_WaitAck                              0x08005401   Thumb Code    58  stm32f10x_i2c.o(i.I2C_WaitAck)
    I2C_delay                                0x08005441   Thumb Code    20  stm32f10x_i2c.o(i.I2C_delay)
    IIR_I_Filter                             0x08005455   Thumb Code   188  bf_status_mini_filter.o(i.IIR_I_Filter)
    In0_Process                              0x08005511   Thumb Code    80  usb_core.o(i.In0_Process)
    Jump_To_IAP                              0x080055c5   Thumb Code    82  bf_status_mini_system.o(i.Jump_To_IAP)
    LPF_1st                                  0x08005631   Thumb Code    44  bf_status_mini_filter.o(i.LPF_1st)
    Leave_LowPowerMode                       0x0800565d   Thumb Code    18  hw_config.o(i.Leave_LowPowerMode)
    MPU6050_Read                             0x08005679   Thumb Code   416  mpu6050.o(i.MPU6050_Read)
    MemManage_Handler                        0x08005825   Thumb Code     2  stm32f10x_it.o(i.MemManage_Handler)
    Motor_Stop                               0x0800592d   Thumb Code    18  motor.o(i.Motor_Stop)
    NMI_Handler                              0x0800593f   Thumb Code     2  stm32f10x_it.o(i.NMI_Handler)
    NOP_Process                              0x08005941   Thumb Code     2  usb_core.o(i.NOP_Process)
    NRF_Init                                 0x08005945   Thumb Code   210  nrf24l01.o(i.NRF_Init)
    NRF_RX_Mode                              0x08005a35   Thumb Code    28  nrf24l01.o(i.NRF_RX_Mode)
    NRF_Rx_Dat                               0x08005a55   Thumb Code   100  nrf24l01.o(i.NRF_Rx_Dat)
    NRF_TX_Mode                              0x08005b29   Thumb Code    34  nrf24l01.o(i.NRF_TX_Mode)
    NRF_Tx_Dat                               0x08005b51   Thumb Code    96  nrf24l01.o(i.NRF_Tx_Dat)
    NVIC_DeInit                              0x08005bb9   Thumb Code    44  bf_status_mini_system.o(i.NVIC_DeInit)
    NVIC_Init                                0x08005be5   Thumb Code    94  misc.o(i.NVIC_Init)
    NVIC_PriorityGroupConfig                 0x08005c49   Thumb Code    10  misc.o(i.NVIC_PriorityGroupConfig)
    NVIC_SetVectorTable                      0x08005c5d   Thumb Code    12  misc.o(i.NVIC_SetVectorTable)
    Out0_Process                             0x08005d45   Thumb Code    62  usb_core.o(i.Out0_Process)
    PMAToUserBufferCopy                      0x08005d8d   Thumb Code    26  usb_mem.o(i.PMAToUserBufferCopy)
    PendSV_Handler                           0x08005dad   Thumb Code     2  stm32f10x_it.o(i.PendSV_Handler)
    Post0_Process                            0x08005db1   Thumb Code    52  usb_core.o(i.Post0_Process)
    PowerOn                                  0x08005df5   Thumb Code    36  usb_pwr.o(i.PowerOn)
    QUEUE_PacketCreate                       0x08005e21   Thumb Code    12  usb_queue.o(i.QUEUE_PacketCreate)
    QUEUE_PacketIn                           0x08005e2d   Thumb Code    48  usb_queue.o(i.QUEUE_PacketIn)
    QUEUE_PacketOut                          0x08005e5d   Thumb Code    56  usb_queue.o(i.QUEUE_PacketOut)
    Q_rsqrt                                  0x08005e95   Thumb Code    48  bf_status_mini_math.o(i.Q_rsqrt)
    Quaternion_Get                           0x08005ec9   Thumb Code   950  imu.o(i.Quaternion_Get)
    Quaternion_ToAngE                        0x0800629d   Thumb Code   562  imu.o(i.Quaternion_ToAngE)
    RCC_APB1PeriphClockCmd                   0x08006515   Thumb Code    18  stm32f10x_rcc.o(i.RCC_APB1PeriphClockCmd)
    RCC_APB1PeriphResetCmd                   0x0800652d   Thumb Code    18  stm32f10x_rcc.o(i.RCC_APB1PeriphResetCmd)
    RCC_APB2PeriphClockCmd                   0x08006545   Thumb Code    18  stm32f10x_rcc.o(i.RCC_APB2PeriphClockCmd)
    RCC_APB2PeriphResetCmd                   0x0800655d   Thumb Code    18  stm32f10x_rcc.o(i.RCC_APB2PeriphResetCmd)
    RCC_DeInit                               0x08006575   Thumb Code    50  stm32f10x_rcc.o(i.RCC_DeInit)
    RCC_USBCLKConfig                         0x080065b5   Thumb Code     8  stm32f10x_rcc.o(i.RCC_USBCLKConfig)
    RC_GetData                               0x080065c1   Thumb Code   388  bf_status_mini_rc.o(i.RC_GetData)
    RC_SendData                              0x08006769   Thumb Code   324  bf_status_mini_rc.o(i.RC_SendData)
    Resume                                   0x080068d5   Thumb Code   140  usb_pwr.o(i.Resume)
    Resume_Init                              0x08006969   Thumb Code    26  usb_pwr.o(i.Resume_Init)
    SOF_Callback                             0x08006a39   Thumb Code    76  usb_endp.o(i.SOF_Callback)
    SPI_Cmd                                  0x08006a91   Thumb Code    20  stm32f10x_spi.o(i.SPI_Cmd)
    SPI_I2S_GetFlagStatus                    0x08006aa5   Thumb Code    14  stm32f10x_spi.o(i.SPI_I2S_GetFlagStatus)
    SPI_I2S_ReceiveData                      0x08006ab3   Thumb Code     4  stm32f10x_spi.o(i.SPI_I2S_ReceiveData)
    SPI_I2S_SendData                         0x08006ab7   Thumb Code     4  stm32f10x_spi.o(i.SPI_I2S_SendData)
    SPI_Init                                 0x08006abb   Thumb Code    56  stm32f10x_spi.o(i.SPI_Init)
    ScaleLinear                              0x08006bf1   Thumb Code    80  bf_status_mini_math.o(i.ScaleLinear)
    Send_Once                                0x08006c41   Thumb Code   102  datascope_dp.o(i.Send_Once)
    Sensor_Get                               0x08006cbd   Thumb Code   246  imu.o(i.Sensor_Get)
    Sensor_init                              0x08006ddd   Thumb Code   112  bf_status_mini_system.o(i.Sensor_init)
    SetBTABLE                                0x08006e89   Thumb Code    10  usb_regs.o(i.SetBTABLE)
    SetDeviceAddress                         0x08006e99   Thumb Code    58  usb_core.o(i.SetDeviceAddress)
    SetEPRxAddr                              0x08006ee1   Thumb Code    24  usb_regs.o(i.SetEPRxAddr)
    SetEPRxCount                             0x08006f01   Thumb Code    54  usb_regs.o(i.SetEPRxCount)
    SetEPRxStatus                            0x08006f41   Thumb Code    44  usb_regs.o(i.SetEPRxStatus)
    SetEPRxValid                             0x08006f71   Thumb Code    32  usb_regs.o(i.SetEPRxValid)
    SetEPTxAddr                              0x08006f95   Thumb Code    22  usb_regs.o(i.SetEPTxAddr)
    SetEPTxCount                             0x08006fb5   Thumb Code    20  usb_regs.o(i.SetEPTxCount)
    SetEPTxStatus                            0x08006fd1   Thumb Code    44  usb_regs.o(i.SetEPTxStatus)
    SetEPTxValid                             0x08007001   Thumb Code    32  usb_regs.o(i.SetEPTxValid)
    SetEPType                                0x08007025   Thumb Code    24  usb_regs.o(i.SetEPType)
    Set_SYS_Mode                             0x080070e9   Thumb Code    10  battery.o(i.Set_SYS_Mode)
    Set_System                               0x080070f9   Thumb Code    96  hw_config.o(i.Set_System)
    Set_USBClock                             0x08007169   Thumb Code    20  hw_config.o(i.Set_USBClock)
    Setup0_Process                           0x0800717d   Thumb Code    92  usb_core.o(i.Setup0_Process)
    Single_Read                              0x080071e5   Thumb Code    82  stm32f10x_i2c.o(i.Single_Read)
    Single_Write                             0x08007237   Thumb Code    70  stm32f10x_i2c.o(i.Single_Write)
    Standard_ClearFeature                    0x0800727d   Thumb Code   232  usb_core.o(i.Standard_ClearFeature)
    Standard_GetConfiguration                0x08007379   Thumb Code    30  usb_core.o(i.Standard_GetConfiguration)
    Standard_GetDescriptorData               0x080073a1   Thumb Code    24  usb_core.o(i.Standard_GetDescriptorData)
    Standard_GetInterface                    0x080073bd   Thumb Code    30  usb_core.o(i.Standard_GetInterface)
    Standard_GetStatus                       0x080073e5   Thumb Code   130  usb_core.o(i.Standard_GetStatus)
    Standard_SetConfiguration                0x08007479   Thumb Code    42  usb_core.o(i.Standard_SetConfiguration)
    Standard_SetDeviceFeature                0x080074b1   Thumb Code    26  usb_core.o(i.Standard_SetDeviceFeature)
    Standard_SetEndPointFeature              0x080074d5   Thumb Code   118  usb_core.o(i.Standard_SetEndPointFeature)
    Standard_SetInterface                    0x0800755d   Thumb Code    60  usb_core.o(i.Standard_SetInterface)
    Suspend                                  0x080075a5   Thumb Code   172  usb_pwr.o(i.Suspend)
    SystemInit                               0x08007665   Thumb Code    64  system_stm32f10x.o(i.SystemInit)
    TIM3_IRQHandler                          0x080076b5   Thumb Code    16  stm32f10x_it.o(i.TIM3_IRQHandler)
    TIM_Cmd                                  0x080076c9   Thumb Code    20  stm32f10x_tim.o(i.TIM_Cmd)
    TIM_DeInit                               0x080076dd   Thumb Code   304  stm32f10x_tim.o(i.TIM_DeInit)
    TIM_OC1Init                              0x0800784d   Thumb Code   106  stm32f10x_tim.o(i.TIM_OC1Init)
    TIM_OC1PreloadConfig                     0x080078cd   Thumb Code    12  stm32f10x_tim.o(i.TIM_OC1PreloadConfig)
    TIM_OC2Init                              0x080078d9   Thumb Code   120  stm32f10x_tim.o(i.TIM_OC2Init)
    TIM_OC2PreloadConfig                     0x08007959   Thumb Code    20  stm32f10x_tim.o(i.TIM_OC2PreloadConfig)
    TIM_OC3Init                              0x0800796d   Thumb Code   116  stm32f10x_tim.o(i.TIM_OC3Init)
    TIM_OC3PreloadConfig                     0x080079e9   Thumb Code    12  stm32f10x_tim.o(i.TIM_OC3PreloadConfig)
    TIM_OC4Init                              0x080079f5   Thumb Code    90  stm32f10x_tim.o(i.TIM_OC4Init)
    TIM_OC4PreloadConfig                     0x08007a59   Thumb Code    20  stm32f10x_tim.o(i.TIM_OC4PreloadConfig)
    TIM_OCStructInit                         0x08007a6d   Thumb Code    20  stm32f10x_tim.o(i.TIM_OCStructInit)
    TIM_TimeBaseInit                         0x08007a81   Thumb Code   114  stm32f10x_tim.o(i.TIM_TimeBaseInit)
    Task_Start                               0x08007bd1   Thumb Code   114  app.o(i.Task_Start)
    USART_DeInit                             0x08007d51   Thumb Code    96  stm32f10x_usart.o(i.USART_DeInit)
    USBWakeUp_IRQHandler                     0x08007dc5   Thumb Code     8  usb_it.o(i.USBWakeUp_IRQHandler)
    USB_Cable_Config                         0x08007dcd   Thumb Code    20  hw_config.o(i.USB_Cable_Config)
    USB_Config                               0x08007de5   Thumb Code    22  hw_config.o(i.USB_Config)
    USB_Init                                 0x08007dfd   Thumb Code    22  usb_init.o(i.USB_Init)
    USB_Interrupts_Config                    0x08007e25   Thumb Code    50  hw_config.o(i.USB_Interrupts_Config)
    USB_Istr                                 0x08007e59   Thumb Code   308  usb_istr.o(i.USB_Istr)
    USB_LP_CAN1_RX0_IRQHandler               0x08007fa5   Thumb Code     4  usb_it.o(i.USB_LP_CAN1_RX0_IRQHandler)
    USB_RxRead                               0x08007fa9   Thumb Code    10  hw_config.o(i.USB_RxRead)
    USB_RxWrite                              0x08007fb9   Thumb Code    10  hw_config.o(i.USB_RxWrite)
    USB_SIL_Init                             0x08007fc9   Thumb Code    24  usb_sil.o(i.USB_SIL_Init)
    USB_SIL_Read                             0x08007fe9   Thumb Code    36  usb_sil.o(i.USB_SIL_Read)
    USB_TxRead                               0x0800800d   Thumb Code    10  hw_config.o(i.USB_TxRead)
    USB_TxWrite                              0x0800801d   Thumb Code    10  hw_config.o(i.USB_TxWrite)
    UsageFault_Handler                       0x0800802d   Thumb Code     2  stm32f10x_it.o(i.UsageFault_Handler)
    UserToPMABufferCopy                      0x08008031   Thumb Code    36  usb_mem.o(i.UserToPMABufferCopy)
    Virtual_Com_Port_Data_Setup              0x08008059   Thumb Code    68  usb_prop.o(i.Virtual_Com_Port_Data_Setup)
    Virtual_Com_Port_GetConfigDescriptor     0x080080ad   Thumb Code     6  usb_prop.o(i.Virtual_Com_Port_GetConfigDescriptor)
    Virtual_Com_Port_GetDeviceDescriptor     0x080080b9   Thumb Code     6  usb_prop.o(i.Virtual_Com_Port_GetDeviceDescriptor)
    Virtual_Com_Port_GetLineCoding           0x080080c5   Thumb Code    18  usb_prop.o(i.Virtual_Com_Port_GetLineCoding)
    Virtual_Com_Port_GetStringDescriptor     0x080080e1   Thumb Code    24  usb_prop.o(i.Virtual_Com_Port_GetStringDescriptor)
    Virtual_Com_Port_Get_Interface_Setting   0x08008101   Thumb Code    14  usb_prop.o(i.Virtual_Com_Port_Get_Interface_Setting)
    Virtual_Com_Port_NoData_Setup            0x08008111   Thumb Code    30  usb_prop.o(i.Virtual_Com_Port_NoData_Setup)
    Virtual_Com_Port_Reset                   0x08008135   Thumb Code   208  usb_prop.o(i.Virtual_Com_Port_Reset)
    Virtual_Com_Port_SetConfiguration        0x08008215   Thumb Code    16  usb_prop.o(i.Virtual_Com_Port_SetConfiguration)
    Virtual_Com_Port_SetDeviceAddress        0x0800822d   Thumb Code     8  usb_prop.o(i.Virtual_Com_Port_SetDeviceAddress)
    Virtual_Com_Port_SetLineCoding           0x08008239   Thumb Code    18  usb_prop.o(i.Virtual_Com_Port_SetLineCoding)
    Virtual_Com_Port_Status_In               0x08008255   Thumb Code    14  usb_prop.o(i.Virtual_Com_Port_Status_In)
    Virtual_Com_Port_Status_Out              0x08008269   Thumb Code     2  usb_prop.o(i.Virtual_Com_Port_Status_Out)
    Virtual_Com_Port_init                    0x0800826d   Thumb Code    28  usb_prop.o(i.Virtual_Com_Port_init)
    __0printf$1                              0x08008291   Thumb Code    22  printf1.o(i.__0printf$1)
    __1printf$1                              0x08008291   Thumb Code     0  printf1.o(i.__0printf$1)
    __2printf                                0x08008291   Thumb Code     0  printf1.o(i.__0printf$1)
    __ARM_fpclassify                         0x080082b1   Thumb Code    40  fpclassify.o(i.__ARM_fpclassify)
    __ARM_fpclassifyf                        0x080082d9   Thumb Code    38  fpclassifyf.o(i.__ARM_fpclassifyf)
    __kernel_poly                            0x080082ff   Thumb Code   170  poly.o(i.__kernel_poly)
    __mathlib_dbl_divzero                    0x080083a9   Thumb Code    12  dunder.o(i.__mathlib_dbl_divzero)
    __mathlib_dbl_infnan2                    0x080083b9   Thumb Code     4  dunder.o(i.__mathlib_dbl_infnan2)
    __mathlib_dbl_invalid                    0x080083bd   Thumb Code    12  dunder.o(i.__mathlib_dbl_invalid)
    __mathlib_dbl_overflow                   0x080083c9   Thumb Code    14  dunder.o(i.__mathlib_dbl_overflow)
    __mathlib_dbl_underflow                  0x080083d9   Thumb Code    10  dunder.o(i.__mathlib_dbl_underflow)
    __mathlib_flt_infnan                     0x080083e9   Thumb Code     6  funder.o(i.__mathlib_flt_infnan)
    __mathlib_flt_infnan2                    0x080083ef   Thumb Code     4  funder.o(i.__mathlib_flt_infnan2)
    __mathlib_flt_invalid                    0x080083f3   Thumb Code     8  funder.o(i.__mathlib_flt_invalid)
    __mathlib_flt_underflow                  0x080083fb   Thumb Code    10  funder.o(i.__mathlib_flt_underflow)
    __mathlib_rredf2                         0x08008405   Thumb Code   344  rredf.o(i.__mathlib_rredf2)
    __scatterload_copy                       0x0800856d   Thumb Code    14  handlers.o(i.__scatterload_copy)
    __scatterload_null                       0x0800857b   Thumb Code     2  handlers.o(i.__scatterload_null)
    __scatterload_zeroinit                   0x0800857d   Thumb Code    14  handlers.o(i.__scatterload_zeroinit)
    __set_errno                              0x0800858d   Thumb Code     6  errno.o(i.__set_errno)
    asinf                                    0x080086ed   Thumb Code   254  asinf.o(i.asinf)
    atan2f                                   0x08008811   Thumb Code   528  atan2f.o(i.atan2f)
    battery_init                             0x08008a6d   Thumb Code   168  battery.o(i.battery_init)
    battery_read                             0x08008b21   Thumb Code   124  battery.o(i.battery_read)
    bmp280GetData                            0x08008d19   Thumb Code   184  bmp280.o(i.bmp280GetData)
    bmp280_init                              0x08008e55   Thumb Code   166  bmp280.o(i.bmp280_init)
    cosf                                     0x08008f3d   Thumb Code   328  cosf.o(i.cosf)
    data_load                                0x080090b9   Thumb Code    88  bf_status_mini_param.o(i.data_load)
    data_save                                0x08009121   Thumb Code   104  bf_status_mini_param.o(i.data_save)
    deadband                                 0x08009199   Thumb Code    60  bf_status_mini_math.o(i.deadband)
    fputc                                    0x08009301   Thumb Code    14  hw_config.o(i.fputc)
    led_init                                 0x08009311   Thumb Code   104  led.o(i.led_init)
    led_ref                                  0x08009391   Thumb Code   240  led.o(i.led_ref)
    main                                     0x08009491   Thumb Code    32  main.o(i.main)
    motor_init                               0x080094c1   Thumb Code   180  motor.o(i.motor_init)
    motor_output                             0x08009581   Thumb Code   150  motor.o(i.motor_output)
    mpu_init                                 0x0800961d   Thumb Code    88  mpu6050.o(i.mpu_init)
    param_init                               0x08009675   Thumb Code   132  bf_status_mini_param.o(i.param_init)
    pow                                      0x08009731   Thumb Code  2512  pow.o(i.pow)
    presssureFilter                          0x0800a109   Thumb Code   176  bf_status_mini_filter.o(i.presssureFilter)
    pvPortMalloc                             0x0800a5a9   Thumb Code   172  heap_2.o(i.pvPortMalloc)
    pvTaskIncrementMutexHeldCount            0x0800a65d   Thumb Code    18  tasks.o(i.pvTaskIncrementMutexHeldCount)
    pxPortInitialiseStack                    0x0800a675   Thumb Code    32  port.o(i.pxPortInitialiseStack)
    sinf                                     0x0800a699   Thumb Code   338  sinf.o(i.sinf)
    sqrt                                     0x0800a821   Thumb Code    76  sqrt.o(i.sqrt)
    sqrtf                                    0x0800a86d   Thumb Code    44  sqrtf.o(i.sqrtf)
    start_led                                0x0800a899   Thumb Code    82  led.o(i.start_led)
    system_init                              0x0800a8f5   Thumb Code    44  bf_status_mini_system.o(i.system_init)
    thrust_bat_compensated                   0x0800a929   Thumb Code    82  motor.o(i.thrust_bat_compensated)
    uxListRemove                             0x0800a991   Thumb Code    36  list.o(i.uxListRemove)
    vListInitialise                          0x0800a9b5   Thumb Code    22  list.o(i.vListInitialise)
    vListInitialiseItem                      0x0800a9cb   Thumb Code     6  list.o(i.vListInitialiseItem)
    vListInsert                              0x0800a9d1   Thumb Code    48  list.o(i.vListInsert)
    vListInsertEnd                           0x0800aa01   Thumb Code    24  list.o(i.vListInsertEnd)
    vPortEnterCritical                       0x0800aa19   Thumb Code    24  port.o(i.vPortEnterCritical)
    vPortExitCritical                        0x0800aa35   Thumb Code    16  port.o(i.vPortExitCritical)
    vPortFree                                0x0800aa49   Thumb Code    56  heap_2.o(i.vPortFree)
    vPortSetupTimerInterrupt                 0x0800aa85   Thumb Code    14  port.o(i.vPortSetupTimerInterrupt)
    vTaskDelay                               0x0800aa99   Thumb Code    44  tasks.o(i.vTaskDelay)
    vTaskDelayUntil                          0x0800aac9   Thumb Code    78  tasks.o(i.vTaskDelayUntil)
    vTaskDelete                              0x0800ab21   Thumb Code   136  tasks.o(i.vTaskDelete)
    vTaskMissedYield                         0x0800abb9   Thumb Code     8  tasks.o(i.vTaskMissedYield)
    vTaskPlaceOnEventList                    0x0800abc5   Thumb Code    30  tasks.o(i.vTaskPlaceOnEventList)
    vTaskPriorityInherit                     0x0800abe9   Thumb Code   124  tasks.o(i.vTaskPriorityInherit)
    vTaskSetTimeOutState                     0x0800ac6d   Thumb Code    12  tasks.o(i.vTaskSetTimeOutState)
    vTaskStartScheduler                      0x0800ac7d   Thumb Code    66  tasks.o(i.vTaskStartScheduler)
    vTaskSuspendAll                          0x0800acd1   Thumb Code    10  tasks.o(i.vTaskSuspendAll)
    vTaskSwitchContext                       0x0800ace1   Thumb Code    60  tasks.o(i.vTaskSwitchContext)
    xPortGetFreeHeapSize                     0x0800ad25   Thumb Code     6  heap_2.o(i.xPortGetFreeHeapSize)
    xPortStartScheduler                      0x0800ad31   Thumb Code    38  port.o(i.xPortStartScheduler)
    xPortSysTickHandler                      0x0800ad61   Thumb Code    38  port.o(i.xPortSysTickHandler)
    xQueueCreateMutex                        0x0800ad8d   Thumb Code    36  queue.o(i.xQueueCreateMutex)
    xQueueGenericCreate                      0x0800adb1   Thumb Code    58  queue.o(i.xQueueGenericCreate)
    xQueueGenericReceive                     0x0800aded   Thumb Code   286  queue.o(i.xQueueGenericReceive)
    xQueueGenericReset                       0x0800af11   Thumb Code   112  queue.o(i.xQueueGenericReset)
    xQueueGenericSend                        0x0800af85   Thumb Code   264  queue.o(i.xQueueGenericSend)
    xTaskCheckForTimeOut                     0x0800b091   Thumb Code    66  tasks.o(i.xTaskCheckForTimeOut)
    xTaskCreate                              0x0800b0d9   Thumb Code    86  tasks.o(i.xTaskCreate)
    xTaskGetTickCount                        0x0800b131   Thumb Code     6  tasks.o(i.xTaskGetTickCount)
    xTaskIncrementTick                       0x0800b13d   Thumb Code   170  tasks.o(i.xTaskIncrementTick)
    xTaskPriorityDisinherit                  0x0800b1f1   Thumb Code   102  tasks.o(i.xTaskPriorityDisinherit)
    xTaskRemoveFromEventList                 0x0800b261   Thumb Code    90  tasks.o(i.xTaskRemoveFromEventList)
    xTaskResumeAll                           0x0800b2c5   Thumb Code   164  tasks.o(i.xTaskResumeAll)
    Virtual_Com_Port_DeviceDescriptor        0x0800b374   Data          18  usb_desc.o(.constdata)
    Virtual_Com_Port_ConfigDescriptor        0x0800b386   Data          67  usb_desc.o(.constdata)
    Virtual_Com_Port_StringLangID            0x0800b3c9   Data           4  usb_desc.o(.constdata)
    Virtual_Com_Port_StringVendor            0x0800b3cd   Data          14  usb_desc.o(.constdata)
    Virtual_Com_Port_StringProduct           0x0800b3db   Data          34  usb_desc.o(.constdata)
    __mathlib_zero                           0x0800b488   Data           8  qnan.o(.constdata)
    Region$$Table$$Base                      0x0800b4b0   Number         0  anon$$obj.o(Region$$Table)
    Region$$Table$$Limit                     0x0800b4d0   Number         0  anon$$obj.o(Region$$Table)
    SystemCoreClock                          0x20000000   Data           4  system_stm32f10x.o(.data)
    AHBPrescTable                            0x20000004   Data          16  system_stm32f10x.o(.data)
    gSensorMpu                               0x20000014   Data         108  mpu6050.o(.data)
    bmp280_data                              0x20000080   Data          12  bmp280.o(.data)
    gSensorBmp                               0x2000008c   Data          28  bmp280.o(.data)
    gSensorNRF                               0x200000a8   Data          92  nrf24l01.o(.data)
    gBattery                                 0x20000104   Data          20  battery.o(.data)
    gMotor                                   0x20000118   Data          32  motor.o(.data)
    gParam                                   0x2000013c   Data          16  bf_status_mini_param.o(.data)
    b_IIR                                    0x20000150   Data          40  bf_status_mini_filter.o(.data)
    a_IIR                                    0x20000178   Data          40  bf_status_mini_filter.o(.data)
    take_off_status                          0x200001a4   Data           1  bf_status_mini_ctrl.o(.data)
    StopHodeHeader                           0x200001a5   Data           1  bf_status_mini_ctrl.o(.data)
    Lock_Count                               0x200001a8   Data           2  bf_status_mini_ctrl.o(.data)
    roll_flip_int                            0x200001ac   Data           4  bf_status_mini_ctrl.o(.data)
    gRCData                                  0x200001bc   Data          14  bf_status_mini_rc.o(.data)
    gIMU                                     0x200001ec   Data          28  imu.o(.data)
    gNumQ                                    0x20000208   Data          16  imu.o(.data)
    startTaskHandle                          0x20000218   Data           4  app.o(.data)
    EXTI_InitStructure                       0x2000021c   Data           8  hw_config.o(.data)
    Virtual_Com_Port_StringSerial            0x20000224   Data          34  usb_desc.o(.data)
    bIntPackSOF                              0x20000250   Data           1  usb_istr.o(.data)
    wIstr                                    0x20000252   Data           2  usb_istr.o(.data)
    esof_counter                             0x20000254   Data           4  usb_istr.o(.data)
    wCNTR                                    0x20000258   Data           4  usb_istr.o(.data)
    pEpInt_IN                                0x2000025c   Data          28  usb_istr.o(.data)
    pEpInt_OUT                               0x20000278   Data          28  usb_istr.o(.data)
    Request                                  0x20000294   Data           1  usb_prop.o(.data)
    linecoding                               0x20000298   Data           8  usb_prop.o(.data)
    Device_Descriptor                        0x200002a0   Data           8  usb_prop.o(.data)
    Config_Descriptor                        0x200002a8   Data           8  usb_prop.o(.data)
    Device_Property                          0x200002b0   Data          48  usb_prop.o(.data)
    String_Descriptor                        0x200002e0   Data          32  usb_prop.o(.data)
    Device_Table                             0x20000300   Data           2  usb_prop.o(.data)
    User_Standard_Requests                   0x20000304   Data          36  usb_prop.o(.data)
    bDeviceState                             0x20000328   Data           4  usb_pwr.o(.data)
    fSuspendEnabled                          0x2000032c   Data           1  usb_pwr.o(.data)
    ResumeS                                  0x20000330   Data           2  usb_pwr.o(.data)
    remotewakeupon                           0x20000334   Data           4  usb_pwr.o(.data)
    Data_Mul_MaxPacketSize                   0x20000338   Data           1  usb_core.o(.data)
    StatusInfo                               0x2000033a   Data           2  usb_core.o(.data)
    EPindex                                  0x2000033c   Data           1  usb_init.o(.data)
    pInformation                             0x20000340   Data           4  usb_init.o(.data)
    pProperty                                0x20000344   Data           4  usb_init.o(.data)
    pUser_Standard_Requests                  0x20000348   Data           4  usb_init.o(.data)
    wInterrupt_Mask                          0x2000034c   Data           2  usb_init.o(.data)
    SaveRState                               0x2000034e   Data           2  usb_int.o(.data)
    SaveTState                               0x20000350   Data           2  usb_int.o(.data)
    pxCurrentTCB                             0x20000358   Data           4  tasks.o(.data)
    __stdout                                 0x200003ac   Data           4  stdout.o(.data)
    bmp280_cal_data                          0x200003e0   Data          28  bmp280.o(.bss)
    gSelfState                               0x200003fc   Data          20  bf_status_mini_global.o(.bss)
    flag                                     0x20000410   Data          24  bf_status_mini_global.o(.bss)
    InPut_IIR                                0x20000428   Data         120  bf_status_mini_filter.o(.bss)
    OutPut_IIR                               0x200004a0   Data         120  bf_status_mini_filter.o(.bss)
    Data                                     0x20000518   Data          84  bf_status_mini_filter.o(.bss)
    gCtrl                                    0x20000580   Data         360  bf_status_mini_ctrl.o(.bss)
    gTarget                                  0x200006e8   Data          28  bf_status_mini_ctrl.o(.bss)
    EP                                       0x200011a4   Data          32  usb_pwr.o(.bss)
    Device_Info                              0x200011c4   Data          28  usb_init.o(.bss)
    __initial_sp                             0x20004710   Data           0  startup_stm32f10x_md.o(STACK)



==============================================================================

Memory Map of the image

  Image Entry point : 0x080034ed

  Load Region LR_IROM1 (Base: 0x08003400, Size: 0x00008484, Max: 0x0000c000, ABSOLUTE, COMPRESSED[0x00008208])

    Execution Region ER_IROM1 (Base: 0x08003400, Size: 0x000080d0, Max: 0x0000c000, ABSOLUTE)

    Base Addr    Size         Type   Attr      Idx    E Section Name        Object

    0x08003400   0x000000ec   Data   RO            3    RESET               startup_stm32f10x_md.o
    0x080034ec   0x00000000   Code   RO         4635  * .ARM.Collect$$$$00000000  mc_w.l(entry.o)
    0x080034ec   0x00000004   Code   RO         4989    .ARM.Collect$$$$00000001  mc_w.l(entry2.o)
    0x080034f0   0x00000004   Code   RO         4992    .ARM.Collect$$$$00000004  mc_w.l(entry5.o)
    0x080034f4   0x00000000   Code   RO         4994    .ARM.Collect$$$$00000008  mc_w.l(entry7b.o)
    0x080034f4   0x00000000   Code   RO         4996    .ARM.Collect$$$$0000000A  mc_w.l(entry8b.o)
    0x080034f4   0x00000008   Code   RO         4997    .ARM.Collect$$$$0000000B  mc_w.l(entry9a.o)
    0x080034fc   0x00000000   Code   RO         4999    .ARM.Collect$$$$0000000D  mc_w.l(entry10a.o)
    0x080034fc   0x00000000   Code   RO         5001    .ARM.Collect$$$$0000000F  mc_w.l(entry11a.o)
    0x080034fc   0x00000004   Code   RO         4990    .ARM.Collect$$$$00002712  mc_w.l(entry2.o)
    0x08003500   0x00000020   Code   RO           10    .emb_text           core_cm3.o
    0x08003520   0x00000018   Code   RO         2322    .emb_text           battery.o
    0x08003538   0x00000096   Code   RO         3940    .emb_text           port.o
    0x080035ce   0x00000002   PAD
    0x080035d0   0x00000024   Code   RO            4    .text               startup_stm32f10x_md.o
    0x080035f4   0x00000062   Code   RO         4638    .text               mc_w.l(ldiv.o)
    0x08003656   0x00000024   Code   RO         4640    .text               mc_w.l(memcpya.o)
    0x0800367a   0x000000b0   Code   RO         4905    .text               mf_w.l(fadd.o)
    0x0800372a   0x00000064   Code   RO         4907    .text               mf_w.l(fmul.o)
    0x0800378e   0x0000007c   Code   RO         4909    .text               mf_w.l(fdiv.o)
    0x0800380a   0x00000018   Code   RO         4911    .text               mf_w.l(fscalb.o)
    0x08003822   0x0000014e   Code   RO         4913    .text               mf_w.l(dadd.o)
    0x08003970   0x000000e4   Code   RO         4915    .text               mf_w.l(dmul.o)
    0x08003a54   0x000000de   Code   RO         4917    .text               mf_w.l(ddiv.o)
    0x08003b32   0x00000012   Code   RO         4919    .text               mf_w.l(fflti.o)
    0x08003b44   0x0000000a   Code   RO         4921    .text               mf_w.l(ffltui.o)
    0x08003b4e   0x00000032   Code   RO         4923    .text               mf_w.l(ffixi.o)
    0x08003b80   0x00000028   Code   RO         4925    .text               mf_w.l(ffixui.o)
    0x08003ba8   0x00000026   Code   RO         4927    .text               mf_w.l(f2d.o)
    0x08003bce   0x00000038   Code   RO         4929    .text               mf_w.l(d2f.o)
    0x08003c06   0x00000002   PAD
    0x08003c08   0x00000014   Code   RO         4931    .text               mf_w.l(cfcmple.o)
    0x08003c1c   0x00000014   Code   RO         4933    .text               mf_w.l(cfrcmple.o)
    0x08003c30   0x0000002c   Code   RO         5004    .text               mc_w.l(uidiv.o)
    0x08003c5c   0x00000062   Code   RO         5006    .text               mc_w.l(uldiv.o)
    0x08003cbe   0x0000001e   Code   RO         5008    .text               mc_w.l(llshl.o)
    0x08003cdc   0x00000024   Code   RO         5010    .text               mc_w.l(llsshr.o)
    0x08003d00   0x00000000   Code   RO         5019    .text               mc_w.l(iusefp.o)
    0x08003d00   0x0000006e   Code   RO         5020    .text               mf_w.l(fepilogue.o)
    0x08003d6e   0x0000003c   Code   RO         5022    .text               mf_w.l(frnd.o)
    0x08003daa   0x000000ba   Code   RO         5024    .text               mf_w.l(depilogue.o)
    0x08003e64   0x0000002e   Code   RO         5026    .text               mf_w.l(dscalb.o)
    0x08003e92   0x00000022   Code   RO         5028    .text               mf_w.l(dflti.o)
    0x08003eb4   0x00000030   Code   RO         5032    .text               mf_w.l(cdrcmple.o)
    0x08003ee4   0x00000024   Code   RO         5034    .text               mc_w.l(init.o)
    0x08003f08   0x00000020   Code   RO         5036    .text               mc_w.l(llushr.o)
    0x08003f28   0x0000005e   Code   RO         5038    .text               mf_w.l(fsqrt.o)
    0x08003f86   0x000000a2   Code   RO         5040    .text               mf_w.l(dsqrt.o)
    0x08004028   0x00000056   Code   RO         5052    .text               mc_w.l(__dczerorl2.o)
    0x0800407e   0x00000014   Code   RO          436    i.ADC_Cmd           stm32f10x_adc.o
    0x08004092   0x0000000e   Code   RO          444    i.ADC_GetCalibrationStatus  stm32f10x_adc.o
    0x080040a0   0x00000006   Code   RO          445    i.ADC_GetConversionValue  stm32f10x_adc.o
    0x080040a6   0x0000000e   Code   RO          447    i.ADC_GetFlagStatus  stm32f10x_adc.o
    0x080040b4   0x0000000e   Code   RO          450    i.ADC_GetResetCalibrationStatus  stm32f10x_adc.o
    0x080040c2   0x00000002   PAD
    0x080040c4   0x00000048   Code   RO          454    i.ADC_Init          stm32f10x_adc.o
    0x0800410c   0x00000074   Code   RO          458    i.ADC_RegularChannelConfig  stm32f10x_adc.o
    0x08004180   0x0000000a   Code   RO          459    i.ADC_ResetCalibration  stm32f10x_adc.o
    0x0800418a   0x00000014   Code   RO          461    i.ADC_SoftwareStartConvCmd  stm32f10x_adc.o
    0x0800419e   0x0000000a   Code   RO          463    i.ADC_StartCalibration  stm32f10x_adc.o
    0x080041a8   0x000000f8   Code   RO         2643    i.AltControl        bf_status_mini_ctrl.o
    0x080042a0   0x00000020   Code   RO         2726    i.Angle_Get         imu.o
    0x080042c0   0x00000028   Code   RO         2453    i.BSP_init          bf_status_mini_system.o
    0x080042e8   0x00000002   Code   RO         2816    i.BusFault_Handler  stm32f10x_it.o
    0x080042ea   0x0000000a   Code   RO         3511    i.ByteSwap          usb_regs.o
    0x080042f4   0x00000158   Code   RO         3383    i.CTR_LP            usb_int.o
    0x0800444c   0x00000238   Code   RO         2644    i.Calculate_Target  bf_status_mini_ctrl.o
    0x08004684   0x00000028   Code   RO         3512    i.ClearDTOG_RX      usb_regs.o
    0x080046ac   0x00000028   Code   RO         3513    i.ClearDTOG_TX      usb_regs.o
    0x080046d4   0x00000020   Code   RO         3518    i.Clear_Status_Out  usb_regs.o
    0x080046f4   0x00000110   Code   RO         2645    i.Control           bf_status_mini_ctrl.o
    0x08004804   0x00000138   Code   RO         2646    i.CorePID           bf_status_mini_ctrl.o
    0x0800493c   0x00000080   Code   RO         1965    i.DataScope_Data_Generate  datascope_dp.o
    0x080049bc   0x00000054   Code   RO         1966    i.DataScope_Get_Channel_Data  datascope_dp.o
    0x08004a10   0x000000b4   Code   RO         3237    i.DataStageIn       usb_core.o
    0x08004ac4   0x000000a4   Code   RO         3238    i.DataStageOut      usb_core.o
    0x08004b68   0x0000019c   Code   RO         3239    i.Data_Setup0       usb_core.o
    0x08004d04   0x00000002   Code   RO         2817    i.DebugMon_Handler  stm32f10x_it.o
    0x08004d06   0x00000010   Code   RO         1670    i.DelayMs           stm32fx_delay.o
    0x08004d16   0x00000018   Code   RO         1672    i.DelayUs           stm32fx_delay.o
    0x08004d2e   0x00000002   PAD
    0x08004d30   0x00000044   Code   RO         3021    i.EP1_IN_Callback   usb_endp.o
    0x08004d74   0x00000020   Code   RO         3022    i.EP3_OUT_Callback  usb_endp.o
    0x08004d94   0x0000000c   Code   RO         1186    i.EXTI_ClearITPendingBit  stm32f10x_exti.o
    0x08004da0   0x00000070   Code   RO         1191    i.EXTI_Init         stm32f10x_exti.o
    0x08004e10   0x0000003c   Code   RO         1783    i.FLASH_ErasePage   stm32f10x_flash.o
    0x08004e4c   0x00000028   Code   RO         1784    i.FLASH_GetBank1Status  stm32f10x_flash.o
    0x08004e74   0x00000010   Code   RO         1793    i.FLASH_Lock        stm32f10x_flash.o
    0x08004e84   0x00000034   Code   RO         1796    i.FLASH_ProgramHalfWord  stm32f10x_flash.o
    0x08004eb8   0x00000050   Code   RO         1798    i.FLASH_ProgramWord  stm32f10x_flash.o
    0x08004f08   0x00000004   Code   RO         1799    i.FLASH_ReadHalfWord  stm32f10x_flash.o
    0x08004f0c   0x00000004   Code   RO         1801    i.FLASH_ReadWord    stm32f10x_flash.o
    0x08004f10   0x00000018   Code   RO         1803    i.FLASH_Unlock      stm32f10x_flash.o
    0x08004f28   0x00000022   Code   RO         1807    i.FLASH_WaitForLastOperation  stm32f10x_flash.o
    0x08004f4a   0x00000002   PAD
    0x08004f4c   0x00000040   Code   RO         2417    i.Flag_Clear        bf_status_mini_param.o
    0x08004f8c   0x00000014   Code   RO         1967    i.Float2Byte        datascope_dp.o
    0x08004fa0   0x000000b4   Code   RO          311    i.GPIO_DeInit       stm32f10x_gpio.o
    0x08005054   0x0000009c   Code   RO          316    i.GPIO_Init         stm32f10x_gpio.o
    0x080050f0   0x00000058   Code   RO          318    i.GPIO_PinRemapConfig  stm32f10x_gpio.o
    0x08005148   0x00000028   Code   RO          319    i.GPIO_QuickInit    stm32f10x_gpio.o
    0x08005170   0x0000000e   Code   RO          321    i.GPIO_ReadInputDataBit  stm32f10x_gpio.o
    0x0800517e   0x00000004   Code   RO          324    i.GPIO_ResetBits    stm32f10x_gpio.o
    0x08005182   0x00000004   Code   RO          325    i.GPIO_SetBits      stm32f10x_gpio.o
    0x08005186   0x00000002   PAD
    0x08005188   0x00000020   Code   RO         3530    i.GetEPRxAddr       usb_regs.o
    0x080051a8   0x00000020   Code   RO         3531    i.GetEPRxCount      usb_regs.o
    0x080051c8   0x0000001c   Code   RO         3533    i.GetEPTxAddr       usb_regs.o
    0x080051e4   0x00000034   Code   RO         2890    i.Get_SerialNum     hw_config.o
    0x08005218   0x00000002   Code   RO         2818    i.HardFault_Handler  stm32f10x_it.o
    0x0800521a   0x00000002   PAD
    0x0800521c   0x0000002c   Code   RO         1239    i.I2C_Ack           stm32f10x_i2c.o
    0x08005248   0x00000054   Code   RO         1240    i.I2C_INIT          stm32f10x_i2c.o
    0x0800529c   0x0000002c   Code   RO         1241    i.I2C_NoAck         stm32f10x_i2c.o
    0x080052c8   0x00000040   Code   RO         1242    i.I2C_RadeByte      stm32f10x_i2c.o
    0x08005308   0x0000005a   Code   RO         1243    i.I2C_Read          stm32f10x_i2c.o
    0x08005362   0x00000002   PAD
    0x08005364   0x00000038   Code   RO         1244    i.I2C_SendByte      stm32f10x_i2c.o
    0x0800539c   0x00000038   Code   RO         1245    i.I2C_Start         stm32f10x_i2c.o
    0x080053d4   0x0000002c   Code   RO         1246    i.I2C_Stop          stm32f10x_i2c.o
    0x08005400   0x00000040   Code   RO         1247    i.I2C_WaitAck       stm32f10x_i2c.o
    0x08005440   0x00000014   Code   RO         1249    i.I2C_delay         stm32f10x_i2c.o
    0x08005454   0x000000bc   Code   RO         2572    i.IIR_I_Filter      bf_status_mini_filter.o
    0x08005510   0x0000005c   Code   RO         3240    i.In0_Process       usb_core.o
    0x0800556c   0x00000036   Code   RO         2891    i.IntToUnicode      hw_config.o
    0x080055a2   0x00000002   PAD
    0x080055a4   0x00000020   Code   RO         2647    i.IntegralClear     bf_status_mini_ctrl.o
    0x080055c4   0x0000006c   Code   RO         2454    i.Jump_To_IAP       bf_status_mini_system.o
    0x08005630   0x0000002c   Code   RO         2573    i.LPF_1st           bf_status_mini_filter.o
    0x0800565c   0x0000001c   Code   RO         2892    i.Leave_LowPowerMode  hw_config.o
    0x08005678   0x000001ac   Code   RO         2136    i.MPU6050_Read      mpu6050.o
    0x08005824   0x00000002   Code   RO         2819    i.MemManage_Handler  stm32f10x_it.o
    0x08005826   0x00000002   PAD
    0x08005828   0x00000104   Code   RO         2648    i.MotorOutPut       bf_status_mini_ctrl.o
    0x0800592c   0x00000012   Code   RO         2356    i.Motor_Stop        motor.o
    0x0800593e   0x00000002   Code   RO         2820    i.NMI_Handler       stm32f10x_it.o
    0x08005940   0x00000002   Code   RO         3241    i.NOP_Process       usb_core.o
    0x08005942   0x00000002   PAD
    0x08005944   0x000000f0   Code   RO         2226    i.NRF_Init          nrf24l01.o
    0x08005a34   0x00000020   Code   RO         2227    i.NRF_RX_Mode       nrf24l01.o
    0x08005a54   0x0000006c   Code   RO         2228    i.NRF_Rx_Dat        nrf24l01.o
    0x08005ac0   0x00000068   Code   RO         2229    i.NRF_SETUP         nrf24l01.o
    0x08005b28   0x00000028   Code   RO         2230    i.NRF_TX_Mode       nrf24l01.o
    0x08005b50   0x00000068   Code   RO         2231    i.NRF_Tx_Dat        nrf24l01.o
    0x08005bb8   0x0000002c   Code   RO         2455    i.NVIC_DeInit       bf_status_mini_system.o
    0x08005be4   0x00000064   Code   RO           90    i.NVIC_Init         misc.o
    0x08005c48   0x00000014   Code   RO           91    i.NVIC_PriorityGroupConfig  misc.o
    0x08005c5c   0x00000014   Code   RO           92    i.NVIC_SetVectorTable  misc.o
    0x08005c70   0x000000d4   Code   RO         3242    i.NoData_Setup0     usb_core.o
    0x08005d44   0x00000048   Code   RO         3243    i.Out0_Process      usb_core.o
    0x08005d8c   0x00000020   Code   RO         3412    i.PMAToUserBufferCopy  usb_mem.o
    0x08005dac   0x00000002   Code   RO         2821    i.PendSV_Handler    stm32f10x_it.o
    0x08005dae   0x00000002   PAD
    0x08005db0   0x00000044   Code   RO         3244    i.Post0_Process     usb_core.o
    0x08005df4   0x0000002c   Code   RO         3193    i.PowerOn           usb_pwr.o
    0x08005e20   0x0000000c   Code   RO         3431    i.QUEUE_PacketCreate  usb_queue.o
    0x08005e2c   0x00000030   Code   RO         3433    i.QUEUE_PacketIn    usb_queue.o
    0x08005e5c   0x00000038   Code   RO         3435    i.QUEUE_PacketOut   usb_queue.o
    0x08005e94   0x00000034   Code   RO         2536    i.Q_rsqrt           bf_status_mini_math.o
    0x08005ec8   0x000003d4   Code   RO         2727    i.Quaternion_Get    imu.o
    0x0800629c   0x00000278   Code   RO         2728    i.Quaternion_ToAngE  imu.o
    0x08006514   0x00000018   Code   RO         1328    i.RCC_APB1PeriphClockCmd  stm32f10x_rcc.o
    0x0800652c   0x00000018   Code   RO         1329    i.RCC_APB1PeriphResetCmd  stm32f10x_rcc.o
    0x08006544   0x00000018   Code   RO         1330    i.RCC_APB2PeriphClockCmd  stm32f10x_rcc.o
    0x0800655c   0x00000018   Code   RO         1331    i.RCC_APB2PeriphResetCmd  stm32f10x_rcc.o
    0x08006574   0x00000040   Code   RO         1337    i.RCC_DeInit        stm32f10x_rcc.o
    0x080065b4   0x0000000c   Code   RO         1356    i.RCC_USBCLKConfig  stm32f10x_rcc.o
    0x080065c0   0x000001a8   Code   RO         2702    i.RC_GetData        bf_status_mini_rc.o
    0x08006768   0x0000016c   Code   RO         2703    i.RC_SendData       bf_status_mini_rc.o
    0x080068d4   0x00000094   Code   RO         3194    i.Resume            usb_pwr.o
    0x08006968   0x00000020   Code   RO         3195    i.Resume_Init       usb_pwr.o
    0x08006988   0x000000ae   Code   RO         2649    i.RunPID            bf_status_mini_ctrl.o
    0x08006a36   0x00000002   PAD
    0x08006a38   0x00000058   Code   RO         3023    i.SOF_Callback      usb_endp.o
    0x08006a90   0x00000014   Code   RO         1531    i.SPI_Cmd           stm32f10x_spi.o
    0x08006aa4   0x0000000e   Code   RO         1539    i.SPI_I2S_GetFlagStatus  stm32f10x_spi.o
    0x08006ab2   0x00000004   Code   RO         1542    i.SPI_I2S_ReceiveData  stm32f10x_spi.o
    0x08006ab6   0x00000004   Code   RO         1543    i.SPI_I2S_SendData  stm32f10x_spi.o
    0x08006aba   0x00000038   Code   RO         1544    i.SPI_Init          stm32f10x_spi.o
    0x08006af2   0x00000002   PAD
    0x08006af4   0x00000034   Code   RO         2232    i.SPI_NRF_RW        nrf24l01.o
    0x08006b28   0x0000003c   Code   RO         2233    i.SPI_NRF_ReadBuf   nrf24l01.o
    0x08006b64   0x00000024   Code   RO         2234    i.SPI_NRF_ReadReg   nrf24l01.o
    0x08006b88   0x0000003c   Code   RO         2235    i.SPI_NRF_WriteBuf  nrf24l01.o
    0x08006bc4   0x0000002c   Code   RO         2236    i.SPI_NRF_WriteReg  nrf24l01.o
    0x08006bf0   0x00000050   Code   RO         2537    i.ScaleLinear       bf_status_mini_math.o
    0x08006c40   0x0000007c   Code   RO         1968    i.Send_Once         datascope_dp.o
    0x08006cbc   0x00000120   Code   RO         2729    i.Sensor_Get        imu.o
    0x08006ddc   0x000000ac   Code   RO         2456    i.Sensor_init       bf_status_mini_system.o
    0x08006e88   0x00000010   Code   RO         3541    i.SetBTABLE         usb_regs.o
    0x08006e98   0x00000048   Code   RO         3245    i.SetDeviceAddress  usb_core.o
    0x08006ee0   0x00000020   Code   RO         3555    i.SetEPRxAddr       usb_regs.o
    0x08006f00   0x00000040   Code   RO         3556    i.SetEPRxCount      usb_regs.o
    0x08006f40   0x00000030   Code   RO         3557    i.SetEPRxStatus     usb_regs.o
    0x08006f70   0x00000024   Code   RO         3558    i.SetEPRxValid      usb_regs.o
    0x08006f94   0x00000020   Code   RO         3559    i.SetEPTxAddr       usb_regs.o
    0x08006fb4   0x0000001c   Code   RO         3560    i.SetEPTxCount      usb_regs.o
    0x08006fd0   0x00000030   Code   RO         3561    i.SetEPTxStatus     usb_regs.o
    0x08007000   0x00000024   Code   RO         3562    i.SetEPTxValid      usb_regs.o
    0x08007024   0x0000001c   Code   RO         3563    i.SetEPType         usb_regs.o
    0x08007040   0x000000a8   Code   RO           24    i.SetSysClockTo72   system_stm32f10x.o
    0x080070e8   0x00000010   Code   RO         2323    i.Set_SYS_Mode      battery.o
    0x080070f8   0x00000070   Code   RO         2893    i.Set_System        hw_config.o
    0x08007168   0x00000014   Code   RO         2894    i.Set_USBClock      hw_config.o
    0x0800717c   0x00000068   Code   RO         3246    i.Setup0_Process    usb_core.o
    0x080071e4   0x00000052   Code   RO         1250    i.Single_Read       stm32f10x_i2c.o
    0x08007236   0x00000046   Code   RO         1251    i.Single_Write      stm32f10x_i2c.o
    0x0800727c   0x000000fc   Code   RO         3247    i.Standard_ClearFeature  usb_core.o
    0x08007378   0x00000028   Code   RO         3248    i.Standard_GetConfiguration  usb_core.o
    0x080073a0   0x0000001c   Code   RO         3249    i.Standard_GetDescriptorData  usb_core.o
    0x080073bc   0x00000028   Code   RO         3250    i.Standard_GetInterface  usb_core.o
    0x080073e4   0x00000094   Code   RO         3251    i.Standard_GetStatus  usb_core.o
    0x08007478   0x00000038   Code   RO         3252    i.Standard_SetConfiguration  usb_core.o
    0x080074b0   0x00000024   Code   RO         3253    i.Standard_SetDeviceFeature  usb_core.o
    0x080074d4   0x00000088   Code   RO         3254    i.Standard_SetEndPointFeature  usb_core.o
    0x0800755c   0x00000048   Code   RO         3255    i.Standard_SetInterface  usb_core.o
    0x080075a4   0x000000c0   Code   RO         3196    i.Suspend           usb_pwr.o
    0x08007664   0x00000050   Code   RO           26    i.SystemInit        system_stm32f10x.o
    0x080076b4   0x00000014   Code   RO         2822    i.TIM3_IRQHandler   stm32f10x_it.o
    0x080076c8   0x00000014   Code   RO          666    i.TIM_Cmd           stm32f10x_tim.o
    0x080076dc   0x00000170   Code   RO          671    i.TIM_DeInit        stm32f10x_tim.o
    0x0800784c   0x00000080   Code   RO          695    i.TIM_OC1Init       stm32f10x_tim.o
    0x080078cc   0x0000000c   Code   RO          698    i.TIM_OC1PreloadConfig  stm32f10x_tim.o
    0x080078d8   0x00000080   Code   RO          700    i.TIM_OC2Init       stm32f10x_tim.o
    0x08007958   0x00000014   Code   RO          703    i.TIM_OC2PreloadConfig  stm32f10x_tim.o
    0x0800796c   0x0000007c   Code   RO          705    i.TIM_OC3Init       stm32f10x_tim.o
    0x080079e8   0x0000000c   Code   RO          708    i.TIM_OC3PreloadConfig  stm32f10x_tim.o
    0x080079f4   0x00000064   Code   RO          710    i.TIM_OC4Init       stm32f10x_tim.o
    0x08007a58   0x00000014   Code   RO          712    i.TIM_OC4PreloadConfig  stm32f10x_tim.o
    0x08007a6c   0x00000014   Code   RO          713    i.TIM_OCStructInit  stm32f10x_tim.o
    0x08007a80   0x0000009c   Code   RO          737    i.TIM_TimeBaseInit  stm32f10x_tim.o
    0x08007b1c   0x00000060   Code   RO         2650    i.TakeOff           bf_status_mini_ctrl.o
    0x08007b7c   0x00000020   Code   RO         2778    i.Task_Ctrl         app.o
    0x08007b9c   0x00000034   Code   RO         2779    i.Task_RC           app.o
    0x08007bd0   0x000000bc   Code   RO         2780    i.Task_Start        app.o
    0x08007c8c   0x00000060   Code   RO         2781    i.Task_SysSta       app.o
    0x08007cec   0x00000064   Code   RO         2782    i.Task_USB          app.o
    0x08007d50   0x00000074   Code   RO          136    i.USART_DeInit      stm32f10x_usart.o
    0x08007dc4   0x00000008   Code   RO         3071    i.USBWakeUp_IRQHandler  usb_it.o
    0x08007dcc   0x00000018   Code   RO         2895    i.USB_Cable_Config  hw_config.o
    0x08007de4   0x00000016   Code   RO         2896    i.USB_Config        hw_config.o
    0x08007dfa   0x00000002   PAD
    0x08007dfc   0x00000028   Code   RO         3356    i.USB_Init          usb_init.o
    0x08007e24   0x00000032   Code   RO         2897    i.USB_Interrupts_Config  hw_config.o
    0x08007e56   0x00000002   PAD
    0x08007e58   0x0000014c   Code   RO         3051    i.USB_Istr          usb_istr.o
    0x08007fa4   0x00000004   Code   RO         3072    i.USB_LP_CAN1_RX0_IRQHandler  usb_it.o
    0x08007fa8   0x00000010   Code   RO         2898    i.USB_RxRead        hw_config.o
    0x08007fb8   0x00000010   Code   RO         2899    i.USB_RxWrite       hw_config.o
    0x08007fc8   0x00000020   Code   RO         3871    i.USB_SIL_Init      usb_sil.o
    0x08007fe8   0x00000024   Code   RO         3872    i.USB_SIL_Read      usb_sil.o
    0x0800800c   0x00000010   Code   RO         2900    i.USB_TxRead        hw_config.o
    0x0800801c   0x00000010   Code   RO         2901    i.USB_TxWrite       hw_config.o
    0x0800802c   0x00000002   Code   RO         2823    i.UsageFault_Handler  stm32f10x_it.o
    0x0800802e   0x00000002   PAD
    0x08008030   0x00000028   Code   RO         3413    i.UserToPMABufferCopy  usb_mem.o
    0x08008058   0x00000054   Code   RO         3089    i.Virtual_Com_Port_Data_Setup  usb_prop.o
    0x080080ac   0x0000000c   Code   RO         3090    i.Virtual_Com_Port_GetConfigDescriptor  usb_prop.o
    0x080080b8   0x0000000c   Code   RO         3091    i.Virtual_Com_Port_GetDeviceDescriptor  usb_prop.o
    0x080080c4   0x0000001c   Code   RO         3092    i.Virtual_Com_Port_GetLineCoding  usb_prop.o
    0x080080e0   0x00000020   Code   RO         3093    i.Virtual_Com_Port_GetStringDescriptor  usb_prop.o
    0x08008100   0x0000000e   Code   RO         3094    i.Virtual_Com_Port_Get_Interface_Setting  usb_prop.o
    0x0800810e   0x00000002   PAD
    0x08008110   0x00000024   Code   RO         3095    i.Virtual_Com_Port_NoData_Setup  usb_prop.o
    0x08008134   0x000000e0   Code   RO         3096    i.Virtual_Com_Port_Reset  usb_prop.o
    0x08008214   0x00000018   Code   RO         3097    i.Virtual_Com_Port_SetConfiguration  usb_prop.o
    0x0800822c   0x0000000c   Code   RO         3098    i.Virtual_Com_Port_SetDeviceAddress  usb_prop.o
    0x08008238   0x0000001c   Code   RO         3099    i.Virtual_Com_Port_SetLineCoding  usb_prop.o
    0x08008254   0x00000014   Code   RO         3100    i.Virtual_Com_Port_Status_In  usb_prop.o
    0x08008268   0x00000002   Code   RO         3101    i.Virtual_Com_Port_Status_Out  usb_prop.o
    0x0800826a   0x00000002   PAD
    0x0800826c   0x00000024   Code   RO         3102    i.Virtual_Com_Port_init  usb_prop.o
    0x08008290   0x00000020   Code   RO         4689    i.__0printf$1       mc_w.l(printf1.o)
    0x080082b0   0x00000028   Code   RO         4949    i.__ARM_fpclassify  m_ws.l(fpclassify.o)
    0x080082d8   0x00000026   Code   RO         4951    i.__ARM_fpclassifyf  m_ws.l(fpclassifyf.o)
    0x080082fe   0x000000aa   Code   RO         4967    i.__kernel_poly     m_ws.l(poly.o)
    0x080083a8   0x00000010   Code   RO         4935    i.__mathlib_dbl_divzero  m_ws.l(dunder.o)
    0x080083b8   0x00000004   Code   RO         4937    i.__mathlib_dbl_infnan2  m_ws.l(dunder.o)
    0x080083bc   0x0000000c   Code   RO         4938    i.__mathlib_dbl_invalid  m_ws.l(dunder.o)
    0x080083c8   0x0000000e   Code   RO         4939    i.__mathlib_dbl_overflow  m_ws.l(dunder.o)
    0x080083d6   0x00000002   PAD
    0x080083d8   0x00000010   Code   RO         4941    i.__mathlib_dbl_underflow  m_ws.l(dunder.o)
    0x080083e8   0x00000006   Code   RO         4954    i.__mathlib_flt_infnan  m_ws.l(funder.o)
    0x080083ee   0x00000004   Code   RO         4955    i.__mathlib_flt_infnan2  m_ws.l(funder.o)
    0x080083f2   0x00000008   Code   RO         4956    i.__mathlib_flt_invalid  m_ws.l(funder.o)
    0x080083fa   0x0000000a   Code   RO         4959    i.__mathlib_flt_underflow  m_ws.l(funder.o)
    0x08008404   0x00000168   Code   RO         4970    i.__mathlib_rredf2  m_ws.l(rredf.o)
    0x0800856c   0x0000000e   Code   RO         5046    i.__scatterload_copy  mc_w.l(handlers.o)
    0x0800857a   0x00000002   Code   RO         5047    i.__scatterload_null  mc_w.l(handlers.o)
    0x0800857c   0x0000000e   Code   RO         5048    i.__scatterload_zeroinit  mc_w.l(handlers.o)
    0x0800858a   0x00000002   PAD
    0x0800858c   0x0000000c   Code   RO         5014    i.__set_errno       mc_w.l(errno.o)
    0x08008598   0x00000154   Code   RO         4696    i._printf_core      mc_w.l(printf1.o)
    0x080086ec   0x00000124   Code   RO         4586    i.asinf             m_ws.l(asinf.o)
    0x08008810   0x0000025c   Code   RO         4594    i.atan2f            m_ws.l(atan2f.o)
    0x08008a6c   0x000000b4   Code   RO         2324    i.battery_init      battery.o
    0x08008b20   0x00000094   Code   RO         2325    i.battery_read      battery.o
    0x08008bb4   0x00000164   Code   RO         2188    i.bmp280CompensateP  bmp280.o
    0x08008d18   0x000000c8   Code   RO         2189    i.bmp280GetData     bmp280.o
    0x08008de0   0x00000074   Code   RO         2190    i.bmp280PressureToAltitude  bmp280.o
    0x08008e54   0x000000e8   Code   RO         2191    i.bmp280_init       bmp280.o
    0x08008f3c   0x0000017c   Code   RO         4602    i.cosf              m_ws.l(cosf.o)
    0x080090b8   0x00000068   Code   RO         2418    i.data_load         bf_status_mini_param.o
    0x08009120   0x00000078   Code   RO         2419    i.data_save         bf_status_mini_param.o
    0x08009198   0x00000040   Code   RO         2540    i.deadband          bf_status_mini_math.o
    0x080091d8   0x00000128   Code   RO         2651    i.detecWeight       bf_status_mini_ctrl.o
    0x08009300   0x0000000e   Code   RO         2903    i.fputc             hw_config.o
    0x0800930e   0x00000002   PAD
    0x08009310   0x00000080   Code   RO         2392    i.led_init          led.o
    0x08009390   0x00000100   Code   RO         2393    i.led_ref           led.o
    0x08009490   0x00000030   Code   RO         2873    i.main              main.o
    0x080094c0   0x000000c0   Code   RO         2357    i.motor_init        motor.o
    0x08009580   0x0000009c   Code   RO         2358    i.motor_output      motor.o
    0x0800961c   0x00000058   Code   RO         2137    i.mpu_init          mpu6050.o
    0x08009674   0x000000bc   Code   RO         2420    i.param_init        bf_status_mini_param.o
    0x08009730   0x000009d8   Code   RO         4610    i.pow               m_ws.l(pow.o)
    0x0800a108   0x000000bc   Code   RO         2579    i.presssureFilter   bf_status_mini_filter.o
    0x0800a1c4   0x00000070   Code   RO         4190    i.prvAddCurrentTaskToDelayedList  tasks.o
    0x0800a234   0x000000d0   Code   RO         4191    i.prvAddNewTaskToReadyList  tasks.o
    0x0800a304   0x00000054   Code   RO         4192    i.prvCheckTasksWaitingTermination  tasks.o
    0x0800a358   0x00000026   Code   RO         4011    i.prvCopyDataFromQueue  queue.o
    0x0800a37e   0x0000006c   Code   RO         4012    i.prvCopyDataToQueue  queue.o
    0x0800a3ea   0x00000014   Code   RO         4193    i.prvDeleteTCB      tasks.o
    0x0800a3fe   0x00000002   PAD
    0x0800a400   0x00000028   Code   RO         4194    i.prvIdleTask       tasks.o
    0x0800a428   0x00000078   Code   RO         4195    i.prvInitialiseNewTask  tasks.o
    0x0800a4a0   0x0000001a   Code   RO         4013    i.prvIsQueueEmpty   queue.o
    0x0800a4ba   0x00000044   Code   RO         4014    i.prvNotifyQueueSetContainer  queue.o
    0x0800a4fe   0x00000002   PAD
    0x0800a500   0x00000020   Code   RO         4196    i.prvResetNextTaskUnblockTime  tasks.o
    0x0800a520   0x00000010   Code   RO         3941    i.prvTaskExitError  port.o
    0x0800a530   0x00000078   Code   RO         4015    i.prvUnlockQueue    queue.o
    0x0800a5a8   0x000000b4   Code   RO         4484    i.pvPortMalloc      heap_2.o
    0x0800a65c   0x00000018   Code   RO         4198    i.pvTaskIncrementMutexHeldCount  tasks.o
    0x0800a674   0x00000024   Code   RO         3942    i.pxPortInitialiseStack  port.o
    0x0800a698   0x00000188   Code   RO         4620    i.sinf              m_ws.l(sinf.o)
    0x0800a820   0x0000004c   Code   RO         4974    i.sqrt              m_ws.l(sqrt.o)
    0x0800a86c   0x0000002c   Code   RO         4982    i.sqrtf             m_ws.l(sqrtf.o)
    0x0800a898   0x0000005c   Code   RO         2394    i.start_led         led.o
    0x0800a8f4   0x00000034   Code   RO         2457    i.system_init       bf_status_mini_system.o
    0x0800a928   0x00000068   Code   RO         2359    i.thrust_bat_compensated  motor.o
    0x0800a990   0x00000024   Code   RO         3895    i.uxListRemove      list.o
    0x0800a9b4   0x00000016   Code   RO         3896    i.vListInitialise   list.o
    0x0800a9ca   0x00000006   Code   RO         3897    i.vListInitialiseItem  list.o
    0x0800a9d0   0x00000030   Code   RO         3898    i.vListInsert       list.o
    0x0800aa00   0x00000018   Code   RO         3899    i.vListInsertEnd    list.o
    0x0800aa18   0x0000001c   Code   RO         3944    i.vPortEnterCritical  port.o
    0x0800aa34   0x00000014   Code   RO         3945    i.vPortExitCritical  port.o
    0x0800aa48   0x0000003c   Code   RO         4485    i.vPortFree         heap_2.o
    0x0800aa84   0x00000014   Code   RO         3946    i.vPortSetupTimerInterrupt  port.o
    0x0800aa98   0x00000030   Code   RO         4204    i.vTaskDelay        tasks.o
    0x0800aac8   0x00000058   Code   RO         4205    i.vTaskDelayUntil   tasks.o
    0x0800ab20   0x00000098   Code   RO         4206    i.vTaskDelete       tasks.o
    0x0800abb8   0x0000000c   Code   RO         4208    i.vTaskMissedYield  tasks.o
    0x0800abc4   0x00000024   Code   RO         4210    i.vTaskPlaceOnEventList  tasks.o
    0x0800abe8   0x00000084   Code   RO         4212    i.vTaskPriorityInherit  tasks.o
    0x0800ac6c   0x00000010   Code   RO         4215    i.vTaskSetTimeOutState  tasks.o
    0x0800ac7c   0x00000054   Code   RO         4216    i.vTaskStartScheduler  tasks.o
    0x0800acd0   0x00000010   Code   RO         4218    i.vTaskSuspendAll   tasks.o
    0x0800ace0   0x00000044   Code   RO         4219    i.vTaskSwitchContext  tasks.o
    0x0800ad24   0x0000000c   Code   RO         4487    i.xPortGetFreeHeapSize  heap_2.o
    0x0800ad30   0x00000030   Code   RO         3947    i.xPortStartScheduler  port.o
    0x0800ad60   0x0000002c   Code   RO         3948    i.xPortSysTickHandler  port.o
    0x0800ad8c   0x00000024   Code   RO         4021    i.xQueueCreateMutex  queue.o
    0x0800adb0   0x0000003a   Code   RO         4023    i.xQueueGenericCreate  queue.o
    0x0800adea   0x00000002   PAD
    0x0800adec   0x00000124   Code   RO         4024    i.xQueueGenericReceive  queue.o
    0x0800af10   0x00000074   Code   RO         4025    i.xQueueGenericReset  queue.o
    0x0800af84   0x0000010c   Code   RO         4026    i.xQueueGenericSend  queue.o
    0x0800b090   0x00000048   Code   RO         4220    i.xTaskCheckForTimeOut  tasks.o
    0x0800b0d8   0x00000056   Code   RO         4221    i.xTaskCreate       tasks.o
    0x0800b12e   0x00000002   PAD
    0x0800b130   0x0000000c   Code   RO         4225    i.xTaskGetTickCount  tasks.o
    0x0800b13c   0x000000b4   Code   RO         4227    i.xTaskIncrementTick  tasks.o
    0x0800b1f0   0x00000070   Code   RO         4230    i.xTaskPriorityDisinherit  tasks.o
    0x0800b260   0x00000064   Code   RO         4231    i.xTaskRemoveFromEventList  tasks.o
    0x0800b2c4   0x000000b0   Code   RO         4233    i.xTaskResumeAll    tasks.o
    0x0800b374   0x00000012   Data   RO         3001    .constdata          usb_desc.o
    0x0800b386   0x00000043   Data   RO         3002    .constdata          usb_desc.o
    0x0800b3c9   0x00000004   Data   RO         3003    .constdata          usb_desc.o
    0x0800b3cd   0x0000000e   Data   RO         3004    .constdata          usb_desc.o
    0x0800b3db   0x00000022   Data   RO         3005    .constdata          usb_desc.o
    0x0800b3fd   0x00000003   PAD
    0x0800b400   0x00000088   Data   RO         4611    .constdata          m_ws.l(pow.o)
    0x0800b488   0x00000008   Data   RO         4969    .constdata          m_ws.l(qnan.o)
    0x0800b490   0x00000020   Data   RO         4971    .constdata          m_ws.l(rredf.o)
    0x0800b4b0   0x00000020   Data   RO         5044    Region$$Table       anon$$obj.o


    Execution Region RW_IRAM1 (Base: 0x20000000, Size: 0x00004710, Max: 0x00005000, ABSOLUTE, COMPRESSED[0x00000138])

    Base Addr    Size         Type   Attr      Idx    E Section Name        Object

    0x20000000   0x00000014   Data   RW           27    .data               system_stm32f10x.o
    0x20000014   0x0000006c   Data   RW         2138    .data               mpu6050.o
    0x20000080   0x00000028   Data   RW         2193    .data               bmp280.o
    0x200000a8   0x0000005c   Data   RW         2237    .data               nrf24l01.o
    0x20000104   0x00000014   Data   RW         2326    .data               battery.o
    0x20000118   0x00000020   Data   RW         2360    .data               motor.o
    0x20000138   0x00000001   Data   RW         2395    .data               led.o
    0x20000139   0x00000003   PAD
    0x2000013c   0x00000010   Data   RW         2421    .data               bf_status_mini_param.o
    0x2000014c   0x00000004   PAD
    0x20000150   0x00000028   Data   RW         2583    .data               bf_status_mini_filter.o
    0x20000178   0x00000028   Data   RW         2584    .data               bf_status_mini_filter.o
    0x200001a0   0x00000001   Data   RW         2587    .data               bf_status_mini_filter.o
    0x200001a1   0x00000003   PAD
    0x200001a4   0x00000018   Data   RW         2653    .data               bf_status_mini_ctrl.o
    0x200001bc   0x0000000e   Data   RW         2704    .data               bf_status_mini_rc.o
    0x200001ca   0x00000002   PAD
    0x200001cc   0x0000004c   Data   RW         2730    .data               imu.o
    0x20000218   0x00000004   Data   RW         2783    .data               app.o
    0x2000021c   0x00000008   Data   RW         2907    .data               hw_config.o
    0x20000224   0x00000022   Data   RW         3006    .data               usb_desc.o
    0x20000246   0x00000002   PAD
    0x20000248   0x00000008   Data   RW         3025    .data               usb_endp.o
    0x20000250   0x0000000c   Data   RW         3052    .data               usb_istr.o
    0x2000025c   0x0000001c   Data   RW         3053    .data               usb_istr.o
    0x20000278   0x0000001c   Data   RW         3054    .data               usb_istr.o
    0x20000294   0x0000006c   Data   RW         3103    .data               usb_prop.o
    0x20000300   0x00000002   Data   RW         3104    .data               usb_prop.o
    0x20000302   0x00000002   PAD
    0x20000304   0x00000024   Data   RW         3105    .data               usb_prop.o
    0x20000328   0x00000004   Data   RW         3198    .data               usb_pwr.o
    0x2000032c   0x00000001   Data   RW         3199    .data               usb_pwr.o
    0x2000032d   0x00000003   PAD
    0x20000330   0x00000008   Data   RW         3200    .data               usb_pwr.o
    0x20000338   0x00000004   Data   RW         3256    .data               usb_core.o
    0x2000033c   0x00000001   Data   RW         3358    .data               usb_init.o
    0x2000033d   0x00000003   PAD
    0x20000340   0x0000000c   Data   RW         3359    .data               usb_init.o
    0x2000034c   0x00000002   Data   RW         3361    .data               usb_init.o
    0x2000034e   0x00000004   Data   RW         3384    .data               usb_int.o
    0x20000352   0x00000002   PAD
    0x20000354   0x00000004   Data   RW         3949    .data               port.o
    0x20000358   0x0000003c   Data   RW         4236    .data               tasks.o
    0x20000394   0x00000018   Data   RW         4489    .data               heap_2.o
    0x200003ac   0x00000004   Data   RW         5003    .data               mc_w.l(stdout.o)
    0x200003b0   0x00000004   Data   RW         5015    .data               mc_w.l(errno.o)
    0x200003b4   0x0000002a   Zero   RW         1969    .bss                datascope_dp.o
    0x200003de   0x00000002   PAD
    0x200003e0   0x0000001c   Zero   RW         2192    .bss                bmp280.o
    0x200003fc   0x00000014   Zero   RW         2523    .bss                bf_status_mini_global.o
    0x20000410   0x00000018   Zero   RW         2524    .bss                bf_status_mini_global.o
    0x20000428   0x00000078   Zero   RW         2580    .bss                bf_status_mini_filter.o
    0x200004a0   0x00000078   Zero   RW         2581    .bss                bf_status_mini_filter.o
    0x20000518   0x00000068   Zero   RW         2582    .bss                bf_status_mini_filter.o
    0x20000580   0x00000184   Zero   RW         2652    .bss                bf_status_mini_ctrl.o
    0x20000704   0x00000a20   Zero   RW         2904    .bss                hw_config.o
    0x20001124   0x00000080   Zero   RW         3024    .bss                usb_endp.o
    0x200011a4   0x00000020   Zero   RW         3197    .bss                usb_pwr.o
    0x200011c4   0x0000001c   Zero   RW         3357    .bss                usb_init.o
    0x200011e0   0x0000012c   Zero   RW         4235    .bss                tasks.o
    0x2000130c   0x00003000   Zero   RW         4488    .bss                heap_2.o
    0x2000430c   0x00000004   PAD
    0x20004310   0x00000400   Zero   RW            1    STACK               startup_stm32f10x_md.o


==============================================================================

Image component sizes


      Code (inc. data)   RO Data    RW Data    ZI Data      Debug   Object Name

       468        102          0          4          0       2955   app.o
       368         50          0         20          0       3796   battery.o
      2258        274          0         24        388       8654   bf_status_mini_ctrl.o
       420         12          0         81        344       4683   bf_status_mini_filter.o
         0          0          0          0         44       1782   bf_status_mini_global.o
       196          8          0          0          0       2059   bf_status_mini_math.o
       476         96          0         16          0       2963   bf_status_mini_param.o
       788         76          0         14          0       2985   bf_status_mini_rc.o
       416        104          0          0          0       6287   bf_status_mini_system.o
       904        122          0         40         28       5399   bmp280.o
        32          0          0          0          0       5068   core_cm3.o
       356         56          0          0         42      17916   datascope_dp.o
         0          0          0          0          0       1228   debug_usart.o
       252         18          0         24      12288       3622   heap_2.o
       440         62          0          8       2592       9654   hw_config.o
      1932        148          0         76          0       4723   imu.o
       476         50          0          1          0       1745   led.o
       136          0          0          0          0       4522   list.o
        48         16          0          0          0        447   main.o
       140         24          0          0          0       2053   misc.o
       470         40          0         32          0       3675   motor.o
       516         12          0        108          0       4617   mpu6050.o
       880         90          0         92          0       8948   nrf24l01.o
       362         46          0          4          0       8624   port.o
      1130         14          0          0          0      18098   queue.o
        36          8        236          0       1024        868   startup_stm32f10x_md.o
       296         10          0          0          0       8065   stm32f10x_adc.o
       124         10          0          0          0       1557   stm32f10x_exti.o
       314         34          0          0          0      13437   stm32f10x_flash.o
       486         34          0          0          0       5929   stm32f10x_gpio.o
       718         38          0          0          0       7636   stm32f10x_i2c.o
        34          4          0          0          0       3420   stm32f10x_it.o
       172         42          0          0          0       3304   stm32f10x_rcc.o
        98          0          0          0          0       3822   stm32f10x_spi.o
      1108        154          0          0          0       9664   stm32f10x_tim.o
       116         20          0          0          0       2083   stm32f10x_usart.o
        40          0          0          0          0       1364   stm32fx_delay.o
       248         24          0         20          0     258901   system_stm32f10x.o
      2030        196          0         60        300      27980   tasks.o
      2186        284          0          4          0      14527   usb_core.o
         0          0        137         34          0       1091   usb_desc.o
       188         24          0          8        128       2356   usb_endp.o
        40         18          0         15         28       4010   usb_init.o
       344         30          0          4          0       1616   usb_int.o
       332         24          0         68          0       1679   usb_istr.o
        12          0          0          0          0        912   usb_it.o
        72         10          0          0          0       1756   usb_mem.o
       564        104          0        146          0      11593   usb_prop.o
       416         48          0         13         32       3892   usb_pwr.o
       116          0          0          0          0       2384   usb_queue.o
       582        100          0          0          0       9349   usb_regs.o
        68          8          0          0          0       1406   usb_sil.o

    ----------------------------------------------------------------------
     24250       2644        408        940      17244     541104   Object Totals
         0          0         32          0          0          0   (incl. Generated)
        46          0          3         24          6          0   (incl. Padding)

    ----------------------------------------------------------------------

      Code (inc. data)   RO Data    RW Data    ZI Data      Debug   Library Member Name

       292         38          0          0          0        120   asinf.o
       604         76          0          0          0        116   atan2f.o
       380         52          0          0          0        124   cosf.o
        62         10          0          0          0        340   dunder.o
        40          0          0          0          0         68   fpclassify.o
        38          0          0          0          0         68   fpclassifyf.o
        28          0          0          0          0        272   funder.o
       170          0          0          0          0         96   poly.o
      2520        190        136          0          0        324   pow.o
         0          0          8          0          0          0   qnan.o
       360         16         32          0          0         88   rredf.o
       392         54          0          0          0        124   sinf.o
        76          0          0          0          0         84   sqrt.o
        44          0          0          0          0         80   sqrtf.o
        86          0          0          0          0          0   __dczerorl2.o
         0          0          0          0          0          0   entry.o
         0          0          0          0          0          0   entry10a.o
         0          0          0          0          0          0   entry11a.o
         8          4          0          0          0          0   entry2.o
         4          0          0          0          0          0   entry5.o
         0          0          0          0          0          0   entry7b.o
         0          0          0          0          0          0   entry8b.o
         8          4          0          0          0          0   entry9a.o
        12          6          0          4          0         68   errno.o
        30          0          0          0          0          0   handlers.o
        36          8          0          0          0         68   init.o
         0          0          0          0          0          0   iusefp.o
        98          0          0          0          0         84   ldiv.o
        30          0          0          0          0         68   llshl.o
        36          0          0          0          0         68   llsshr.o
        32          0          0          0          0         68   llushr.o
        36          0          0          0          0         68   memcpya.o
       372         14          0          0          0        184   printf1.o
         0          0          0          4          0          0   stdout.o
        44          0          0          0          0         80   uidiv.o
        98          0          0          0          0         92   uldiv.o
        48          0          0          0          0         68   cdrcmple.o
        20          0          0          0          0         68   cfcmple.o
        20          0          0          0          0         68   cfrcmple.o
        56          0          0          0          0         88   d2f.o
       334          0          0          0          0        148   dadd.o
       222          0          0          0          0        100   ddiv.o
       186          0          0          0          0        176   depilogue.o
        34          0          0          0          0         76   dflti.o
       228          0          0          0          0         96   dmul.o
        46          0          0          0          0         80   dscalb.o
       162          0          0          0          0        100   dsqrt.o
        38          0          0          0          0         68   f2d.o
       176          0          0          0          0        140   fadd.o
       124          0          0          0          0         88   fdiv.o
       110          0          0          0          0        168   fepilogue.o
        50          0          0          0          0         68   ffixi.o
        40          0          0          0          0         68   ffixui.o
        18          0          0          0          0         68   fflti.o
        10          0          0          0          0         68   ffltui.o
       100          0          0          0          0         76   fmul.o
        60          0          0          0          0         76   frnd.o
        24          0          0          0          0         68   fscalb.o
        94          0          0          0          0         96   fsqrt.o

    ----------------------------------------------------------------------
      8142        472        176          8          0       4872   Library Totals
         6          0          0          0          0          0   (incl. Padding)

    ----------------------------------------------------------------------

      Code (inc. data)   RO Data    RW Data    ZI Data      Debug   Library Name

      5006        436        176          0          0       1904   m_ws.l
       930         36          0          8          0        848   mc_w.l
      2200          0          0          0          0       2120   mf_w.l

    ----------------------------------------------------------------------
      8142        472        176          8          0       4872   Library Totals

    ----------------------------------------------------------------------

==============================================================================


      Code (inc. data)   RO Data    RW Data    ZI Data      Debug   

     32392       3116        584        948      17244     529204   Grand Totals
     32392       3116        584        312      17244     529204   ELF Image Totals (compressed)
     32392       3116        584        312          0          0   ROM Totals

==============================================================================

    Total RO  Size (Code + RO Data)                32976 (  32.20kB)
    Total RW  Size (RW Data + ZI Data)             18192 (  17.77kB)
    Total ROM Size (Code + RO Data + RW Data)      33288 (  32.51kB)

==============================================================================

